---
triple:          'arm64-apple-darwin'
binary-path:     market_debug
relocations:
  - { offset: 0x3B, size: 0x8, addend: 0x0, symName: _.str, symObjAddr: 0x95100, symBinAddr: 0x1000827E0, symSize: 0x0 }
  - { offset: 0x6B, size: 0x8, addend: 0x0, symName: _.str.1, symObjAddr: 0x95160, symBinAddr: 0x100082840, symSize: 0x0 }
  - { offset: 0x88, size: 0x8, addend: 0x0, symName: _.str.2, symObjAddr: 0x951A0, symBinAddr: 0x100082880, symSize: 0x0 }
  - { offset: 0xA5, size: 0x8, addend: 0x0, symName: _.str.3, symObjAddr: 0x951E0, symBinAddr: 0x1000828C0, symSize: 0x0 }
  - { offset: 0xC2, size: 0x8, addend: 0x0, symName: _.str.4, symObjAddr: 0x8CC60, symBinAddr: 0x100078080, symSize: 0x0 }
  - { offset: 0xE0, size: 0x8, addend: 0x0, symName: _.str.5, symObjAddr: 0x95240, symBinAddr: 0x100082920, symSize: 0x0 }
  - { offset: 0xFE, size: 0x8, addend: 0x0, symName: _.str.6, symObjAddr: 0x95260, symBinAddr: 0x100082940, symSize: 0x0 }
  - { offset: 0x11C, size: 0x8, addend: 0x0, symName: _.str.7, symObjAddr: 0x952A0, symBinAddr: 0x100082980, symSize: 0x0 }
  - { offset: 0x13A, size: 0x8, addend: 0x0, symName: _.str.8, symObjAddr: 0x952E0, symBinAddr: 0x1000829C0, symSize: 0x0 }
  - { offset: 0x158, size: 0x8, addend: 0x0, symName: _.str.9, symObjAddr: 0x95300, symBinAddr: 0x1000829E0, symSize: 0x0 }
  - { offset: 0x16A, size: 0x8, addend: 0x0, symName: _.str.10, symObjAddr: 0x95340, symBinAddr: 0x100082A20, symSize: 0x0 }
  - { offset: 0x188, size: 0x8, addend: 0x0, symName: _.str.11, symObjAddr: 0x95360, symBinAddr: 0x100082A40, symSize: 0x0 }
  - { offset: 0x1A6, size: 0x8, addend: 0x0, symName: _.str.12, symObjAddr: 0x95380, symBinAddr: 0x100082A60, symSize: 0x0 }
  - { offset: 0x1C4, size: 0x8, addend: 0x0, symName: _.str.13, symObjAddr: 0x953A0, symBinAddr: 0x100082A80, symSize: 0x0 }
  - { offset: 0x1E2, size: 0x8, addend: 0x0, symName: _.str.14, symObjAddr: 0x953E0, symBinAddr: 0x100082AC0, symSize: 0x0 }
  - { offset: 0x200, size: 0x8, addend: 0x0, symName: _.str.15, symObjAddr: 0x95400, symBinAddr: 0x100082AE0, symSize: 0x0 }
  - { offset: 0x212, size: 0x8, addend: 0x0, symName: _.str.16, symObjAddr: 0x95440, symBinAddr: 0x100082B20, symSize: 0x0 }
  - { offset: 0x230, size: 0x8, addend: 0x0, symName: _.str.17, symObjAddr: 0x95460, symBinAddr: 0x100082B40, symSize: 0x0 }
  - { offset: 0x24E, size: 0x8, addend: 0x0, symName: _.str.18, symObjAddr: 0x95480, symBinAddr: 0x100082B60, symSize: 0x0 }
  - { offset: 0x260, size: 0x8, addend: 0x0, symName: _.str.19, symObjAddr: 0x954A0, symBinAddr: 0x100082B80, symSize: 0x0 }
  - { offset: 0x27E, size: 0x8, addend: 0x0, symName: _.str.20, symObjAddr: 0x954E0, symBinAddr: 0x100082BC0, symSize: 0x0 }
  - { offset: 0x29C, size: 0x8, addend: 0x0, symName: _.str.21, symObjAddr: 0x95500, symBinAddr: 0x100082BE0, symSize: 0x0 }
  - { offset: 0x2BA, size: 0x8, addend: 0x0, symName: _.str.22, symObjAddr: 0x95520, symBinAddr: 0x100082C00, symSize: 0x0 }
  - { offset: 0x2D8, size: 0x8, addend: 0x0, symName: _.str.23, symObjAddr: 0x95560, symBinAddr: 0x100082C40, symSize: 0x0 }
  - { offset: 0x2F6, size: 0x8, addend: 0x0, symName: _.str.24, symObjAddr: 0x955C0, symBinAddr: 0x100082CA0, symSize: 0x0 }
  - { offset: 0x308, size: 0x8, addend: 0x0, symName: _.str.25, symObjAddr: 0x95600, symBinAddr: 0x100082CE0, symSize: 0x0 }
  - { offset: 0x325, size: 0x8, addend: 0x0, symName: _.str.26, symObjAddr: 0x95660, symBinAddr: 0x100082D40, symSize: 0x0 }
  - { offset: 0x342, size: 0x8, addend: 0x0, symName: _.str.27, symObjAddr: 0x95680, symBinAddr: 0x100082D60, symSize: 0x0 }
  - { offset: 0x353, size: 0x8, addend: 0x0, symName: _.str.29, symObjAddr: 0x956A0, symBinAddr: 0x100082D80, symSize: 0x0 }
  - { offset: 0x364, size: 0x8, addend: 0x0, symName: _.str.30, symObjAddr: 0x956E0, symBinAddr: 0x100082DC0, symSize: 0x0 }
  - { offset: 0x375, size: 0x8, addend: 0x0, symName: _.str.31, symObjAddr: 0x95720, symBinAddr: 0x100082E00, symSize: 0x0 }
  - { offset: 0x392, size: 0x8, addend: 0x0, symName: _.str.32, symObjAddr: 0x95740, symBinAddr: 0x100082E20, symSize: 0x0 }
  - { offset: 0x3A3, size: 0x8, addend: 0x0, symName: _.str.33, symObjAddr: 0x95760, symBinAddr: 0x100082E40, symSize: 0x0 }
  - { offset: 0x3B4, size: 0x8, addend: 0x0, symName: _.str.37, symObjAddr: 0x957A0, symBinAddr: 0x100082E80, symSize: 0x0 }
  - { offset: 0x3C5, size: 0x8, addend: 0x0, symName: _.str.38, symObjAddr: 0x957C0, symBinAddr: 0x100082EA0, symSize: 0x0 }
  - { offset: 0x3D6, size: 0x8, addend: 0x0, symName: _.str.39, symObjAddr: 0x957E0, symBinAddr: 0x100082EC0, symSize: 0x0 }
  - { offset: 0x3E7, size: 0x8, addend: 0x0, symName: _.str.40, symObjAddr: 0x95800, symBinAddr: 0x100082EE0, symSize: 0x0 }
  - { offset: 0x408, size: 0x8, addend: 0x0, symName: __ZL12long_options, symObjAddr: 0x7B3A0, symBinAddr: 0x100096F80, symSize: 0x0 }
  - { offset: 0xEEC3, size: 0x8, addend: 0x0, symName: __ZNSt3__124__put_character_sequenceB8ne180100IcNS_11char_traitsIcEEEERNS_13basic_ostreamIT_T0_EES7_PKS4_m, symObjAddr: 0x4AFE8, symBinAddr: 0x10004DDFC, symSize: 0x1148 }
  - { offset: 0xF238, size: 0x8, addend: 0x0, symName: __ZNSt3__117__floyd_sift_downB8ne180100INS_17_ClassicAlgPolicyER18BuyOrderComparatorNS_11__wrap_iterIP5OrderEEEET1_S8_OT0_NS_15iterator_traitsIS8_E15difference_typeE, symObjAddr: 0x5EC54, symBinAddr: 0x100061A68, symSize: 0x6B8 }
  - { offset: 0xF311, size: 0x8, addend: 0x0, symName: __ZNSt3__117__floyd_sift_downB8ne180100INS_17_ClassicAlgPolicyER19SellOrderComparatorNS_11__wrap_iterIP5OrderEEEET1_S8_OT0_NS_15iterator_traitsIS8_E15difference_typeE, symObjAddr: 0x5FF10, symBinAddr: 0x100062D24, symSize: 0x6B8 }
  - { offset: 0xF592, size: 0x8, addend: 0x0, symName: __ZNSt3__117__floyd_sift_downB8ne180100INS_17_ClassicAlgPolicyERNS_4lessIjEENS_11__wrap_iterIPjEEEET1_S8_OT0_NS_15iterator_traitsIS8_E15difference_typeE, symObjAddr: 0x6D758, symBinAddr: 0x10007056C, symSize: 0x7F4 }
  - { offset: 0xF66B, size: 0x8, addend: 0x0, symName: __ZNSt3__117__floyd_sift_downB8ne180100INS_17_ClassicAlgPolicyERNS_7greaterIjEENS_11__wrap_iterIPjEEEET1_S8_OT0_NS_15iterator_traitsIS8_E15difference_typeE, symObjAddr: 0x700F8, symBinAddr: 0x100072F0C, symSize: 0x7F4 }
  - { offset: 0xFBE7, size: 0x8, addend: 0x0, symName: __ZNSt3__1rsB8ne180100IcNS_11char_traitsIcEEEERNS_13basic_istreamIT_T0_EES7_RS4_, symObjAddr: 0x3CAC, symBinAddr: 0x100006AC0, symSize: 0xDA4 }
  - { offset: 0xFC71, size: 0x8, addend: 0x0, symName: __ZNSt3__1rsB8ne180100IcNS_11char_traitsIcEEEERNS_13basic_istreamIT_T0_EES7_PS4_, symObjAddr: 0x4A50, symBinAddr: 0x100007864, symSize: 0x33C }
  - { offset: 0xFCCF, size: 0x8, addend: 0x0, symName: __ZNSt3__1lsB8ne180100INS_11char_traitsIcEEEERNS_13basic_ostreamIcT_EES6_PKc, symObjAddr: 0x4D8C, symBinAddr: 0x100007BA0, symSize: 0xD0 }
  - { offset: 0xFD15, size: 0x8, addend: 0x0, symName: __ZNSt3__1rsB8ne180100IcNS_11char_traitsIcEENS_9allocatorIcEEEERNS_13basic_istreamIT_T0_EES9_RNS_12basic_stringIS6_S7_T1_EE, symObjAddr: 0xDFA8, symBinAddr: 0x100010DBC, symSize: 0x19FC }
  - { offset: 0xFDEE, size: 0x8, addend: 0x0, symName: __ZNSt3__1eqB8ne180100IcNS_11char_traitsIcEENS_9allocatorIcEEEEbRKNS_12basic_stringIT_T0_T1_EEPKS6_, symObjAddr: 0xF9A4, symBinAddr: 0x1000127B8, symSize: 0x120 }
  - { offset: 0xFE55, size: 0x8, addend: 0x0, symName: __ZNSt3__1neB8ne180100IP6TraderEEbRKNS_11__wrap_iterIT_EES7_, symObjAddr: 0x10D70, symBinAddr: 0x100013B84, symSize: 0xC4 }
  - { offset: 0xFE98, size: 0x8, addend: 0x0, symName: __ZNSt3__13minB8ne180100IjEERKT_S3_S3_, symObjAddr: 0x11428, symBinAddr: 0x10001423C, symSize: 0x104 }
  - { offset: 0xFEDB, size: 0x8, addend: 0x0, symName: __ZNSt3__17getlineB8ne180100IcNS_11char_traitsIcEENS_9allocatorIcEEEERNS_13basic_istreamIT_T0_EES9_RNS_12basic_stringIS6_S7_T1_EE, symObjAddr: 0x176D8, symBinAddr: 0x10001A4EC, symSize: 0x330 }
  - { offset: 0xFF33, size: 0x8, addend: 0x0, symName: __ZNSt3__1eqB8ne180100IP6TraderEEbRKNS_11__wrap_iterIT_EES7_, symObjAddr: 0x18F58, symBinAddr: 0x10001BD6C, symSize: 0x9C }
  - { offset: 0xFF76, size: 0x8, addend: 0x0, symName: __ZNSt3__13minB8ne180100IjNS_6__lessIvvEEEERKT_S5_S5_T0_, symObjAddr: 0x190A0, symBinAddr: 0x10001BEB4, symSize: 0x2B8 }
  - { offset: 0x1004C, size: 0x8, addend: 0x0, symName: __ZNSt3__122__make_exception_guardB8ne180100INS_6vectorI6TraderNS_9allocatorIS2_EEE16__destroy_vectorEEENS_28__exception_guard_exceptionsIT_EES8_, symObjAddr: 0x1A628, symBinAddr: 0x10001D43C, symSize: 0x2AC }
  - { offset: 0x10085, size: 0x8, addend: 0x0, symName: __ZNSt3__119__allocate_at_leastB8ne180100INS_9allocatorI6TraderEEEENS_19__allocation_resultINS_16allocator_traitsIT_E7pointerEEERS6_m, symObjAddr: 0x1C4B4, symBinAddr: 0x10001F2C8, symSize: 0x284 }
  - { offset: 0x100CA, size: 0x8, addend: 0x0, symName: __ZNSt3__13minB8ne180100ImEERKT_S3_S3_, symObjAddr: 0x1CB84, symBinAddr: 0x10001F998, symSize: 0x104 }
  - { offset: 0x102F7, size: 0x8, addend: 0x0, symName: __ZNSt3__13minB8ne180100ImNS_6__lessIvvEEEERKT_S5_S5_T0_, symObjAddr: 0x1CDB4, symBinAddr: 0x10001FBC8, symSize: 0x2B8 }
  - { offset: 0x10357, size: 0x8, addend: 0x0, symName: __ZNSt3__120__throw_length_errorB8ne180100EPKc, symObjAddr: 0x1D32C, symBinAddr: 0x100020140, symSize: 0xB4 }
  - { offset: 0x1037F, size: 0x8, addend: 0x0, symName: __ZNSt3__117__libcpp_allocateB8ne180100Emm, symObjAddr: 0x1D6CC, symBinAddr: 0x1000204E0, symSize: 0x60 }
  - { offset: 0x103D9, size: 0x8, addend: 0x0, symName: __ZNSt3__124__is_overaligned_for_newB8ne180100Em, symObjAddr: 0x1D72C, symBinAddr: 0x100020540, symSize: 0x20 }
  - { offset: 0x10407, size: 0x8, addend: 0x0, symName: __ZNSt3__121__libcpp_operator_newB8ne180100IJmSt11align_val_tEEEPvDpT_, symObjAddr: 0x1D74C, symBinAddr: 0x100020560, symSize: 0x6C }
  - { offset: 0x10454, size: 0x8, addend: 0x0, symName: __ZNSt3__121__libcpp_operator_newB8ne180100IJmEEEPvDpT_, symObjAddr: 0x1D7B8, symBinAddr: 0x1000205CC, symSize: 0x24 }
  - { offset: 0x1048D, size: 0x8, addend: 0x0, symName: __ZNSt3__112__to_addressB8ne180100I6TraderEEPT_S3_, symObjAddr: 0x1DEC4, symBinAddr: 0x100020CD8, symSize: 0x14 }
  - { offset: 0x104C2, size: 0x8, addend: 0x0, symName: __ZNSt3__119__libcpp_deallocateB8ne180100EPvmm, symObjAddr: 0x1FE0C, symBinAddr: 0x100022C20, symSize: 0x60 }
  - { offset: 0x10527, size: 0x8, addend: 0x0, symName: __ZNSt3__127__do_deallocate_handle_sizeB8ne180100IJSt11align_val_tEEEvPvmDpT_, symObjAddr: 0x1FE6C, symBinAddr: 0x100022C80, symSize: 0x30 }
  - { offset: 0x1057A, size: 0x8, addend: 0x0, symName: __ZNSt3__127__do_deallocate_handle_sizeB8ne180100IJEEEvPvmDpT_, symObjAddr: 0x1FE9C, symBinAddr: 0x100022CB0, symSize: 0x28 }
  - { offset: 0x105B8, size: 0x8, addend: 0x0, symName: __ZNSt3__124__libcpp_operator_deleteB8ne180100IJPvSt11align_val_tEEEvDpT_, symObjAddr: 0x1FEC4, symBinAddr: 0x100022CD8, symSize: 0x2C }
  - { offset: 0x10601, size: 0x8, addend: 0x0, symName: __ZNSt3__124__libcpp_operator_deleteB8ne180100IJPvEEEvDpT_, symObjAddr: 0x1FEF0, symBinAddr: 0x100022D04, symSize: 0x24 }
  - { offset: 0x10636, size: 0x8, addend: 0x0, symName: __ZNSt3__122__make_exception_guardB8ne180100INS_6vectorINS_14priority_queueI5OrderNS1_IS3_NS_9allocatorIS3_EEEE18BuyOrderComparatorEENS4_IS8_EEE16__destroy_vectorEEENS_28__exception_guard_exceptionsIT_EESD_, symObjAddr: 0x204EC, symBinAddr: 0x100023300, symSize: 0x2AC }
  - { offset: 0x1066F, size: 0x8, addend: 0x0, symName: __ZNSt3__119__allocate_at_leastB8ne180100INS_9allocatorINS_14priority_queueI5OrderNS_6vectorIS3_NS1_IS3_EEEE18BuyOrderComparatorEEEEEENS_19__allocation_resultINS_16allocator_traitsIT_E7pointerEEERSC_m, symObjAddr: 0x2231C, symBinAddr: 0x100025130, symSize: 0x284 }
  - { offset: 0x106B4, size: 0x8, addend: 0x0, symName: __ZNSt3__112__to_addressB8ne180100INS_14priority_queueI5OrderNS_6vectorIS2_NS_9allocatorIS2_EEEE18BuyOrderComparatorEEEEPT_SA_, symObjAddr: 0x23458, symBinAddr: 0x10002626C, symSize: 0x14 }
  - { offset: 0x106E9, size: 0x8, addend: 0x0, symName: __ZNSt3__112__to_addressB8ne180100I5OrderEEPT_S3_, symObjAddr: 0x26D34, symBinAddr: 0x100029B48, symSize: 0x14 }
  - { offset: 0x1071E, size: 0x8, addend: 0x0, symName: __ZNSt3__122__make_exception_guardB8ne180100INS_6vectorINS_14priority_queueI5OrderNS1_IS3_NS_9allocatorIS3_EEEE19SellOrderComparatorEENS4_IS8_EEE16__destroy_vectorEEENS_28__exception_guard_exceptionsIT_EESD_, symObjAddr: 0x27BFC, symBinAddr: 0x10002AA10, symSize: 0x2AC }
  - { offset: 0x10757, size: 0x8, addend: 0x0, symName: __ZNSt3__119__allocate_at_leastB8ne180100INS_9allocatorINS_14priority_queueI5OrderNS_6vectorIS3_NS1_IS3_EEEE19SellOrderComparatorEEEEEENS_19__allocation_resultINS_16allocator_traitsIT_E7pointerEEERSC_m, symObjAddr: 0x29A2C, symBinAddr: 0x10002C840, symSize: 0x284 }
  - { offset: 0x1079C, size: 0x8, addend: 0x0, symName: __ZNSt3__112__to_addressB8ne180100INS_14priority_queueI5OrderNS_6vectorIS2_NS_9allocatorIS2_EEEE19SellOrderComparatorEEEEPT_SA_, symObjAddr: 0x2AB68, symBinAddr: 0x10002D97C, symSize: 0x14 }
  - { offset: 0x107D1, size: 0x8, addend: 0x0, symName: __ZNSt3__112__to_addressB8ne180100I13time_travelerEEPT_S3_, symObjAddr: 0x2EB18, symBinAddr: 0x10003192C, symSize: 0x14 }
  - { offset: 0x10806, size: 0x8, addend: 0x0, symName: __ZNSt3__112__to_addressB8ne180100I19MedianPriorityQueueEEPT_S3_, symObjAddr: 0x30C18, symBinAddr: 0x100033A2C, symSize: 0x14 }
  - { offset: 0x1083B, size: 0x8, addend: 0x0, symName: __ZNSt3__112__to_addressB8ne180100IjEEPT_S2_, symObjAddr: 0x31FD4, symBinAddr: 0x100034DE8, symSize: 0x14 }
  - { offset: 0x10870, size: 0x8, addend: 0x0, symName: __ZNSt3__13maxB8ne180100ImEERKT_S3_S3_, symObjAddr: 0x36838, symBinAddr: 0x10003964C, symSize: 0x104 }
  - { offset: 0x108B3, size: 0x8, addend: 0x0, symName: __ZNSt3__13maxB8ne180100ImNS_6__lessIvvEEEERKT_S5_S5_T0_, symObjAddr: 0x36C0C, symBinAddr: 0x100039A20, symSize: 0x2B8 }
  - { offset: 0x10913, size: 0x8, addend: 0x0, symName: __ZNSt3__119__allocate_at_leastB8ne180100INS_9allocatorI13time_travelerEEEENS_19__allocation_resultINS_16allocator_traitsIT_E7pointerEEERS6_m, symObjAddr: 0x37714, symBinAddr: 0x10003A528, symSize: 0x284 }
  - { offset: 0x10958, size: 0x8, addend: 0x0, symName: __ZNSt3__142__uninitialized_allocator_move_if_noexceptB8ne180100INS_9allocatorI13time_travelerEENS_16reverse_iteratorIPS2_EES6_S2_vEET1_RT_T0_SA_S7_, symObjAddr: 0x38770, symBinAddr: 0x10003B584, symSize: 0x4A0 }
  - { offset: 0x109E2, size: 0x8, addend: 0x0, symName: __ZNSt3__14swapB8ne180100IP13time_travelerEENS_9enable_ifIXaasr21is_move_constructibleIT_EE5valuesr18is_move_assignableIS4_EE5valueEvE4typeERS4_S7_, symObjAddr: 0x38D40, symBinAddr: 0x10003BB54, symSize: 0x1C0 }
  - { offset: 0x10A33, size: 0x8, addend: 0x0, symName: __ZNSt3__14moveB8ne180100INS_16reverse_iteratorIP13time_travelerEES4_EET0_T_S6_S5_, symObjAddr: 0x39158, symBinAddr: 0x10003BF6C, symSize: 0x4B0 }
  - { offset: 0x10A9A, size: 0x8, addend: 0x0, symName: __ZNSt3__16__moveB8ne180100INS_17_ClassicAlgPolicyENS_16reverse_iteratorIP13time_travelerEES5_S5_EENS_4pairIT0_T2_EES7_T1_S8_, symObjAddr: 0x39608, symBinAddr: 0x10003C41C, symSize: 0x41C }
  - { offset: 0x10B12, size: 0x8, addend: 0x0, symName: __ZNSt3__123__dispatch_copy_or_moveB8ne180100INS_17_ClassicAlgPolicyENS_11__move_loopIS1_EENS_14__move_trivialENS_16reverse_iteratorIP13time_travelerEES8_S8_EENS_4pairIT2_T4_EESA_T3_SB_, symObjAddr: 0x39A24, symBinAddr: 0x10003C838, symSize: 0x41C }
  - { offset: 0x10B9C, size: 0x8, addend: 0x0, symName: __ZNSt3__121__unwrap_and_dispatchB8ne180100INS_10__overloadINS_11__move_loopINS_17_ClassicAlgPolicyEEENS_14__move_trivialEEENS_16reverse_iteratorIP13time_travelerEESA_SA_Li0EEENS_4pairIT0_T2_EESC_T1_SD_, symObjAddr: 0x39E40, symBinAddr: 0x10003CC54, symSize: 0x880 }
  - { offset: 0x10C40, size: 0x8, addend: 0x0, symName: __ZNSt3__114__unwrap_rangeB8ne180100INS_16reverse_iteratorIP13time_travelerEES4_EENS_4pairIT0_S6_EET_S8_, symObjAddr: 0x3A6C0, symBinAddr: 0x10003D4D4, symSize: 0x440 }
  - { offset: 0x10E41, size: 0x8, addend: 0x0, symName: __ZNSt3__113__unwrap_iterB8ne180100INS_16reverse_iteratorIP13time_travelerEENS_18__unwrap_iter_implIS4_Lb0EEELi0EEEDTclsrT0_8__unwrapclsr3stdE7declvalIT_EEEES8_, symObjAddr: 0x3AE60, symBinAddr: 0x10003DC74, symSize: 0x2DC }
  - { offset: 0x10E89, size: 0x8, addend: 0x0, symName: __ZNSt3__19make_pairB8ne180100INS_16reverse_iteratorIP13time_travelerEES4_EENS_4pairINS_18__unwrap_ref_decayIT_E4typeENS6_IT0_E4typeEEEOS7_OSA_, symObjAddr: 0x3B13C, symBinAddr: 0x10003DF50, symSize: 0x108 }
  - { offset: 0x10ED8, size: 0x8, addend: 0x0, symName: __ZNSt3__114__rewrap_rangeB8ne180100INS_16reverse_iteratorIP13time_travelerEES4_EET_S5_T0_, symObjAddr: 0x3B244, symBinAddr: 0x10003E058, symSize: 0x3CC }
  - { offset: 0x10F2C, size: 0x8, addend: 0x0, symName: __ZNSt3__113__rewrap_iterB8ne180100INS_16reverse_iteratorIP13time_travelerEES4_NS_18__unwrap_iter_implIS4_Lb0EEEEET_S7_T0_, symObjAddr: 0x3B610, symBinAddr: 0x10003E424, symSize: 0x438 }
  - { offset: 0x10F89, size: 0x8, addend: 0x0, symName: __ZNSt3__1neB8ne180100IP13time_travelerS2_EEbRKNS_16reverse_iteratorIT_EERKNS3_IT0_EE, symObjAddr: 0x3BA48, symBinAddr: 0x10003E85C, symSize: 0x9C }
  - { offset: 0x1118F, size: 0x8, addend: 0x0, symName: __ZNSt3__119__allocate_at_leastB8ne180100INS_9allocatorI19MedianPriorityQueueEEEENS_19__allocation_resultINS_16allocator_traitsIT_E7pointerEEERS6_m, symObjAddr: 0x418BC, symBinAddr: 0x1000446D0, symSize: 0x284 }
  - { offset: 0x111D4, size: 0x8, addend: 0x0, symName: __ZNSt3__142__uninitialized_allocator_move_if_noexceptB8ne180100INS_9allocatorI19MedianPriorityQueueEENS_16reverse_iteratorIPS2_EES6_S6_EET2_RT_T0_T1_S7_, symObjAddr: 0x42918, symBinAddr: 0x10004572C, symSize: 0x620 }
  - { offset: 0x11289, size: 0x8, addend: 0x0, symName: __ZNSt3__14swapB8ne180100IP19MedianPriorityQueueEENS_9enable_ifIXaasr21is_move_constructibleIT_EE5valuesr18is_move_assignableIS4_EE5valueEvE4typeERS4_S7_, symObjAddr: 0x43068, symBinAddr: 0x100045E7C, symSize: 0x1C0 }
  - { offset: 0x112DA, size: 0x8, addend: 0x0, symName: __ZNSt3__122__make_exception_guardB8ne180100INS_29_AllocatorDestroyRangeReverseINS_9allocatorI19MedianPriorityQueueEENS_16reverse_iteratorIPS3_EEEEEENS_28__exception_guard_exceptionsIT_EESA_, symObjAddr: 0x43480, symBinAddr: 0x100046294, symSize: 0x22C }
  - { offset: 0x11311, size: 0x8, addend: 0x0, symName: __ZNSt3__1neB8ne180100IP19MedianPriorityQueueS2_EEbRKNS_16reverse_iteratorIT_EERKNS3_IT0_EE, symObjAddr: 0x4373C, symBinAddr: 0x100046550, symSize: 0x9C }
  - { offset: 0x1135D, size: 0x8, addend: 0x0, symName: __ZNSt3__112__to_addressB8ne180100INS_16reverse_iteratorIP19MedianPriorityQueueEEvEEu7__decayIDTclsr19__to_address_helperIT_EE6__callclsr3stdE7declvalIRKS5_EEEEES7_, symObjAddr: 0x43864, symBinAddr: 0x100046678, symSize: 0x6C }
  - { offset: 0x113BC, size: 0x8, addend: 0x0, symName: __ZNSt3__119__allocator_destroyB8ne180100INS_9allocatorI19MedianPriorityQueueEENS_16reverse_iteratorINS4_IPS2_EEEES7_EEvRT_T0_T1_, symObjAddr: 0x45A7C, symBinAddr: 0x100048890, symSize: 0x1A4 }
  - { offset: 0x11421, size: 0x8, addend: 0x0, symName: __ZNSt3__1neB8ne180100INS_16reverse_iteratorIP19MedianPriorityQueueEES4_EEbRKNS1_IT_EERKNS1_IT0_EE, symObjAddr: 0x45EB4, symBinAddr: 0x100048CC8, symSize: 0x314 }
  - { offset: 0x1146F, size: 0x8, addend: 0x0, symName: __ZNSt3__112__to_addressB8ne180100INS_16reverse_iteratorINS1_IP19MedianPriorityQueueEEEEvEEu7__decayIDTclsr19__to_address_helperIT_EE6__callclsr3stdE7declvalIRKS6_EEEEES8_, symObjAddr: 0x461C8, symBinAddr: 0x100048FDC, symSize: 0x6C }
  - { offset: 0x114CE, size: 0x8, addend: 0x0, symName: __ZNSt3__116__input_c_stringB8ne180100IcNS_11char_traitsIcEEEERNS_13basic_istreamIT_T0_EES7_PS4_m, symObjAddr: 0x47A40, symBinAddr: 0x10004A854, symSize: 0x19B4 }
  - { offset: 0x1159E, size: 0x8, addend: 0x0, symName: __ZNSt3__19use_facetB8ne180100INS_5ctypeIcEEEERKT_RKNS_6localeE, symObjAddr: 0x494DC, symBinAddr: 0x10004C2F0, symSize: 0x188 }
  - { offset: 0x1197C, size: 0x8, addend: 0x0, symName: __ZNSt3__116__pad_and_outputB8ne180100IcNS_11char_traitsIcEEEENS_19ostreambuf_iteratorIT_T0_EES6_PKS4_S8_S8_RNS_8ios_baseES4_, symObjAddr: 0x4C274, symBinAddr: 0x10004F088, symSize: 0xBFC }
  - { offset: 0x11A59, size: 0x8, addend: 0x0, symName: __ZNSt3__112__to_addressB8ne180100IcEEPT_S2_, symObjAddr: 0x4DCE0, symBinAddr: 0x100050AF4, symSize: 0x14 }
  - { offset: 0x11AC1, size: 0x8, addend: 0x0, symName: __ZNSt3__118__constexpr_strlenB8ne180100EPKc, symObjAddr: 0x4F018, symBinAddr: 0x100051E2C, symSize: 0x24 }
  - { offset: 0x11AED, size: 0x8, addend: 0x0, symName: __ZNSt3__19push_heapB8ne180100INS_11__wrap_iterIP5OrderEE18BuyOrderComparatorEEvT_S6_T0_, symObjAddr: 0x4F76C, symBinAddr: 0x100052580, symSize: 0x364 }
  - { offset: 0x11B4F, size: 0x8, addend: 0x0, symName: __ZNSt3__119__allocate_at_leastB8ne180100INS_9allocatorI5OrderEEEENS_19__allocation_resultINS_16allocator_traitsIT_E7pointerEEERS6_m, symObjAddr: 0x545C4, symBinAddr: 0x1000573D8, symSize: 0x284 }
  - { offset: 0x11B94, size: 0x8, addend: 0x0, symName: __ZNSt3__142__uninitialized_allocator_move_if_noexceptB8ne180100INS_9allocatorI5OrderEENS_16reverse_iteratorIPS2_EES6_S2_vEET1_RT_T0_SA_S7_, symObjAddr: 0x5508C, symBinAddr: 0x100057EA0, symSize: 0x4A0 }
  - { offset: 0x11C1E, size: 0x8, addend: 0x0, symName: __ZNSt3__14swapB8ne180100IP5OrderEENS_9enable_ifIXaasr21is_move_constructibleIT_EE5valuesr18is_move_assignableIS4_EE5valueEvE4typeERS4_S7_, symObjAddr: 0x5565C, symBinAddr: 0x100058470, symSize: 0x1C0 }
  - { offset: 0x11C6F, size: 0x8, addend: 0x0, symName: __ZNSt3__14moveB8ne180100INS_16reverse_iteratorIP5OrderEES4_EET0_T_S6_S5_, symObjAddr: 0x55A84, symBinAddr: 0x100058898, symSize: 0x4B0 }
  - { offset: 0x11CD6, size: 0x8, addend: 0x0, symName: __ZNSt3__16__moveB8ne180100INS_17_ClassicAlgPolicyENS_16reverse_iteratorIP5OrderEES5_S5_EENS_4pairIT0_T2_EES7_T1_S8_, symObjAddr: 0x55F34, symBinAddr: 0x100058D48, symSize: 0x41C }
  - { offset: 0x11D4E, size: 0x8, addend: 0x0, symName: __ZNSt3__123__dispatch_copy_or_moveB8ne180100INS_17_ClassicAlgPolicyENS_11__move_loopIS1_EENS_14__move_trivialENS_16reverse_iteratorIP5OrderEES8_S8_EENS_4pairIT2_T4_EESA_T3_SB_, symObjAddr: 0x56350, symBinAddr: 0x100059164, symSize: 0x41C }
  - { offset: 0x11DD8, size: 0x8, addend: 0x0, symName: __ZNSt3__121__unwrap_and_dispatchB8ne180100INS_10__overloadINS_11__move_loopINS_17_ClassicAlgPolicyEEENS_14__move_trivialEEENS_16reverse_iteratorIP5OrderEESA_SA_Li0EEENS_4pairIT0_T2_EESC_T1_SD_, symObjAddr: 0x5676C, symBinAddr: 0x100059580, symSize: 0x880 }
  - { offset: 0x11E7C, size: 0x8, addend: 0x0, symName: __ZNSt3__114__unwrap_rangeB8ne180100INS_16reverse_iteratorIP5OrderEES4_EENS_4pairIT0_S6_EET_S8_, symObjAddr: 0x56FEC, symBinAddr: 0x100059E00, symSize: 0x440 }
  - { offset: 0x11FA4, size: 0x8, addend: 0x0, symName: __ZNSt3__113__unwrap_iterB8ne180100INS_16reverse_iteratorIP5OrderEENS_18__unwrap_iter_implIS4_Lb0EEELi0EEEDTclsrT0_8__unwrapclsr3stdE7declvalIT_EEEES8_, symObjAddr: 0x5778C, symBinAddr: 0x10005A5A0, symSize: 0x2DC }
  - { offset: 0x11FEC, size: 0x8, addend: 0x0, symName: __ZNSt3__19make_pairB8ne180100INS_16reverse_iteratorIP5OrderEES4_EENS_4pairINS_18__unwrap_ref_decayIT_E4typeENS6_IT0_E4typeEEEOS7_OSA_, symObjAddr: 0x57A68, symBinAddr: 0x10005A87C, symSize: 0x108 }
  - { offset: 0x1203B, size: 0x8, addend: 0x0, symName: __ZNSt3__114__rewrap_rangeB8ne180100INS_16reverse_iteratorIP5OrderEES4_EET_S5_T0_, symObjAddr: 0x57B70, symBinAddr: 0x10005A984, symSize: 0x3CC }
  - { offset: 0x1208F, size: 0x8, addend: 0x0, symName: __ZNSt3__113__rewrap_iterB8ne180100INS_16reverse_iteratorIP5OrderEES4_NS_18__unwrap_iter_implIS4_Lb0EEEEET_S7_T0_, symObjAddr: 0x57F3C, symBinAddr: 0x10005AD50, symSize: 0x438 }
  - { offset: 0x120EC, size: 0x8, addend: 0x0, symName: __ZNSt3__1neB8ne180100IP5OrderS2_EEbRKNS_16reverse_iteratorIT_EERKNS3_IT0_EE, symObjAddr: 0x58374, symBinAddr: 0x10005B188, symSize: 0x9C }
  - { offset: 0x1218B, size: 0x8, addend: 0x0, symName: __ZNSt3__111__push_heapB8ne180100INS_17_ClassicAlgPolicyENS_11__wrap_iterIP5OrderEE18BuyOrderComparatorEEvT0_S7_RT1_, symObjAddr: 0x59788, symBinAddr: 0x10005C59C, symSize: 0x398 }
  - { offset: 0x12202, size: 0x8, addend: 0x0, symName: __ZNSt3__1miB8ne180100IP5OrderS2_EEDTmicldtfp_4baseEcldtfp0_4baseEERKNS_11__wrap_iterIT_EERKNS4_IT0_EE, symObjAddr: 0x59B20, symBinAddr: 0x10005C934, symSize: 0x9C }
  - { offset: 0x1224E, size: 0x8, addend: 0x0, symName: __ZNSt3__19__sift_upB8ne180100INS_17_ClassicAlgPolicyER18BuyOrderComparatorNS_11__wrap_iterIP5OrderEEEEvT1_S8_OT0_NS_15iterator_traitsIS8_E15difference_typeE, symObjAddr: 0x59BBC, symBinAddr: 0x10005C9D0, symSize: 0x748 }
  - { offset: 0x12301, size: 0x8, addend: 0x0, symName: __ZNSt3__19push_heapB8ne180100INS_11__wrap_iterIP5OrderEE19SellOrderComparatorEEvT_S6_T0_, symObjAddr: 0x5B364, symBinAddr: 0x10005E178, symSize: 0x364 }
  - { offset: 0x12363, size: 0x8, addend: 0x0, symName: __ZNSt3__111__push_heapB8ne180100INS_17_ClassicAlgPolicyENS_11__wrap_iterIP5OrderEE19SellOrderComparatorEEvT0_S7_RT1_, symObjAddr: 0x5B6C8, symBinAddr: 0x10005E4DC, symSize: 0x398 }
  - { offset: 0x123DA, size: 0x8, addend: 0x0, symName: __ZNSt3__19__sift_upB8ne180100INS_17_ClassicAlgPolicyER19SellOrderComparatorNS_11__wrap_iterIP5OrderEEEEvT1_S8_OT0_NS_15iterator_traitsIS8_E15difference_typeE, symObjAddr: 0x5BA60, symBinAddr: 0x10005E874, symSize: 0x748 }
  - { offset: 0x12679, size: 0x8, addend: 0x0, symName: __ZNSt3__18pop_heapB8ne180100INS_11__wrap_iterIP5OrderEE18BuyOrderComparatorEEvT_S6_T0_, symObjAddr: 0x5E1D4, symBinAddr: 0x100060FE8, symSize: 0x380 }
  - { offset: 0x126EA, size: 0x8, addend: 0x0, symName: __ZNSt3__110__pop_heapB8ne180100INS_17_ClassicAlgPolicyE18BuyOrderComparatorNS_11__wrap_iterIP5OrderEEEEvT1_S7_RT0_NS_15iterator_traitsIS7_E15difference_typeE, symObjAddr: 0x5E6A4, symBinAddr: 0x1000614B8, symSize: 0x5B0 }
  - { offset: 0x127A6, size: 0x8, addend: 0x0, symName: __ZNSt3__1eqB8ne180100IP5OrderEEbRKNS_11__wrap_iterIT_EES7_, symObjAddr: 0x5F30C, symBinAddr: 0x100062120, symSize: 0x9C }
  - { offset: 0x127E9, size: 0x8, addend: 0x0, symName: __ZNSt3__18pop_heapB8ne180100INS_11__wrap_iterIP5OrderEE19SellOrderComparatorEEvT_S6_T0_, symObjAddr: 0x5F5E0, symBinAddr: 0x1000623F4, symSize: 0x380 }
  - { offset: 0x1285A, size: 0x8, addend: 0x0, symName: __ZNSt3__110__pop_heapB8ne180100INS_17_ClassicAlgPolicyE19SellOrderComparatorNS_11__wrap_iterIP5OrderEEEEvT1_S7_RT0_NS_15iterator_traitsIS7_E15difference_typeE, symObjAddr: 0x5F960, symBinAddr: 0x100062774, symSize: 0x5B0 }
  - { offset: 0x12916, size: 0x8, addend: 0x0, symName: __ZNSt3__19push_heapB8ne180100INS_11__wrap_iterIPjEENS_7greaterIjEEEEvT_S6_T0_, symObjAddr: 0x61938, symBinAddr: 0x10006474C, symSize: 0x364 }
  - { offset: 0x12978, size: 0x8, addend: 0x0, symName: __ZNSt3__119__allocate_at_leastB8ne180100INS_9allocatorIjEEEENS_19__allocation_resultINS_16allocator_traitsIT_E7pointerEEERS5_m, symObjAddr: 0x65B0C, symBinAddr: 0x100068920, symSize: 0x284 }
  - { offset: 0x129BD, size: 0x8, addend: 0x0, symName: __ZNSt3__142__uninitialized_allocator_move_if_noexceptB8ne180100INS_9allocatorIjEENS_16reverse_iteratorIPjEES5_jvEET1_RT_T0_S9_S6_, symObjAddr: 0x665D0, symBinAddr: 0x1000693E4, symSize: 0x4A0 }
  - { offset: 0x12A47, size: 0x8, addend: 0x0, symName: __ZNSt3__14swapB8ne180100IPjEENS_9enable_ifIXaasr21is_move_constructibleIT_EE5valuesr18is_move_assignableIS3_EE5valueEvE4typeERS3_S6_, symObjAddr: 0x66BA0, symBinAddr: 0x1000699B4, symSize: 0x1C0 }
  - { offset: 0x12A98, size: 0x8, addend: 0x0, symName: __ZNSt3__14moveB8ne180100INS_16reverse_iteratorIPjEES3_EET0_T_S5_S4_, symObjAddr: 0x66FB8, symBinAddr: 0x100069DCC, symSize: 0x4B0 }
  - { offset: 0x12AFF, size: 0x8, addend: 0x0, symName: __ZNSt3__16__moveB8ne180100INS_17_ClassicAlgPolicyENS_16reverse_iteratorIPjEES4_S4_EENS_4pairIT0_T2_EES6_T1_S7_, symObjAddr: 0x67468, symBinAddr: 0x10006A27C, symSize: 0x41C }
  - { offset: 0x12B77, size: 0x8, addend: 0x0, symName: __ZNSt3__123__dispatch_copy_or_moveB8ne180100INS_17_ClassicAlgPolicyENS_11__move_loopIS1_EENS_14__move_trivialENS_16reverse_iteratorIPjEES7_S7_EENS_4pairIT2_T4_EES9_T3_SA_, symObjAddr: 0x67884, symBinAddr: 0x10006A698, symSize: 0x41C }
  - { offset: 0x12C01, size: 0x8, addend: 0x0, symName: __ZNSt3__121__unwrap_and_dispatchB8ne180100INS_10__overloadINS_11__move_loopINS_17_ClassicAlgPolicyEEENS_14__move_trivialEEENS_16reverse_iteratorIPjEES9_S9_Li0EEENS_4pairIT0_T2_EESB_T1_SC_, symObjAddr: 0x67CA0, symBinAddr: 0x10006AAB4, symSize: 0x880 }
  - { offset: 0x12CA5, size: 0x8, addend: 0x0, symName: __ZNSt3__114__unwrap_rangeB8ne180100INS_16reverse_iteratorIPjEES3_EENS_4pairIT0_S5_EET_S7_, symObjAddr: 0x68520, symBinAddr: 0x10006B334, symSize: 0x440 }
  - { offset: 0x12DCD, size: 0x8, addend: 0x0, symName: __ZNSt3__113__unwrap_iterB8ne180100INS_16reverse_iteratorIPjEENS_18__unwrap_iter_implIS3_Lb0EEELi0EEEDTclsrT0_8__unwrapclsr3stdE7declvalIT_EEEES7_, symObjAddr: 0x68DFC, symBinAddr: 0x10006BC10, symSize: 0x2DC }
  - { offset: 0x12E15, size: 0x8, addend: 0x0, symName: __ZNSt3__19make_pairB8ne180100INS_16reverse_iteratorIPjEES3_EENS_4pairINS_18__unwrap_ref_decayIT_E4typeENS5_IT0_E4typeEEEOS6_OS9_, symObjAddr: 0x690D8, symBinAddr: 0x10006BEEC, symSize: 0x108 }
  - { offset: 0x12E64, size: 0x8, addend: 0x0, symName: __ZNSt3__114__rewrap_rangeB8ne180100INS_16reverse_iteratorIPjEES3_EET_S4_T0_, symObjAddr: 0x691E0, symBinAddr: 0x10006BFF4, symSize: 0x3CC }
  - { offset: 0x12EB8, size: 0x8, addend: 0x0, symName: __ZNSt3__113__rewrap_iterB8ne180100INS_16reverse_iteratorIPjEES3_NS_18__unwrap_iter_implIS3_Lb0EEEEET_S6_T0_, symObjAddr: 0x695AC, symBinAddr: 0x10006C3C0, symSize: 0x438 }
  - { offset: 0x12F15, size: 0x8, addend: 0x0, symName: __ZNSt3__1neB8ne180100IPjS1_EEbRKNS_16reverse_iteratorIT_EERKNS2_IT0_EE, symObjAddr: 0x699E4, symBinAddr: 0x10006C7F8, symSize: 0x9C }
  - { offset: 0x12FB4, size: 0x8, addend: 0x0, symName: __ZNSt3__111__push_heapB8ne180100INS_17_ClassicAlgPolicyENS_11__wrap_iterIPjEENS_7greaterIjEEEEvT0_S7_RT1_, symObjAddr: 0x6ADF8, symBinAddr: 0x10006DC0C, symSize: 0x398 }
  - { offset: 0x1302B, size: 0x8, addend: 0x0, symName: __ZNSt3__1miB8ne180100IPjS1_EEDTmicldtfp_4baseEcldtfp0_4baseEERKNS_11__wrap_iterIT_EERKNS3_IT0_EE, symObjAddr: 0x6B190, symBinAddr: 0x10006DFA4, symSize: 0x9C }
  - { offset: 0x13077, size: 0x8, addend: 0x0, symName: __ZNSt3__19__sift_upB8ne180100INS_17_ClassicAlgPolicyERNS_7greaterIjEENS_11__wrap_iterIPjEEEEvT1_S8_OT0_NS_15iterator_traitsIS8_E15difference_typeE, symObjAddr: 0x6B22C, symBinAddr: 0x10006E040, symSize: 0xA78 }
  - { offset: 0x1312A, size: 0x8, addend: 0x0, symName: __ZNSt3__18pop_heapB8ne180100INS_11__wrap_iterIPjEENS_4lessIjEEEEvT_S6_T0_, symObjAddr: 0x6C9E0, symBinAddr: 0x10006F7F4, symSize: 0x380 }
  - { offset: 0x1319B, size: 0x8, addend: 0x0, symName: __ZNSt3__110__pop_heapB8ne180100INS_17_ClassicAlgPolicyENS_4lessIjEENS_11__wrap_iterIPjEEEEvT1_S7_RT0_NS_15iterator_traitsIS7_E15difference_typeE, symObjAddr: 0x6CEB0, symBinAddr: 0x10006FCC4, symSize: 0x8A8 }
  - { offset: 0x13253, size: 0x8, addend: 0x0, symName: __ZNSt3__1eqB8ne180100IPjEEbRKNS_11__wrap_iterIT_EES6_, symObjAddr: 0x6DF4C, symBinAddr: 0x100070D60, symSize: 0x9C }
  - { offset: 0x13296, size: 0x8, addend: 0x0, symName: __ZNSt3__19__sift_upB8ne180100INS_17_ClassicAlgPolicyERNS_4lessIjEENS_11__wrap_iterIPjEEEEvT1_S8_OT0_NS_15iterator_traitsIS8_E15difference_typeE, symObjAddr: 0x6E190, symBinAddr: 0x100070FA4, symSize: 0xA78 }
  - { offset: 0x13349, size: 0x8, addend: 0x0, symName: __ZNSt3__19push_heapB8ne180100INS_11__wrap_iterIPjEENS_4lessIjEEEEvT_S6_T0_, symObjAddr: 0x6EDD4, symBinAddr: 0x100071BE8, symSize: 0x364 }
  - { offset: 0x133AB, size: 0x8, addend: 0x0, symName: __ZNSt3__111__push_heapB8ne180100INS_17_ClassicAlgPolicyENS_11__wrap_iterIPjEENS_4lessIjEEEEvT0_S7_RT1_, symObjAddr: 0x6F138, symBinAddr: 0x100071F4C, symSize: 0x398 }
  - { offset: 0x13422, size: 0x8, addend: 0x0, symName: __ZNSt3__18pop_heapB8ne180100INS_11__wrap_iterIPjEENS_7greaterIjEEEEvT_S6_T0_, symObjAddr: 0x6F4D0, symBinAddr: 0x1000722E4, symSize: 0x380 }
  - { offset: 0x13493, size: 0x8, addend: 0x0, symName: __ZNSt3__110__pop_heapB8ne180100INS_17_ClassicAlgPolicyENS_7greaterIjEENS_11__wrap_iterIPjEEEEvT1_S7_RT0_NS_15iterator_traitsIS7_E15difference_typeE, symObjAddr: 0x6F850, symBinAddr: 0x100072664, symSize: 0x8A8 }
  - { offset: 0x1354B, size: 0x8, addend: 0x0, symName: __ZNSt3__17getlineB8ne180100IcNS_11char_traitsIcEENS_9allocatorIcEEEERNS_13basic_istreamIT_T0_EES9_RNS_12basic_stringIS6_S7_T1_EES6_, symObjAddr: 0x709E4, symBinAddr: 0x1000737F8, symSize: 0xF80 }
  - { offset: 0x1484C, size: 0x8, addend: 0x0, symName: __ZSt28__throw_bad_array_new_lengthB8ne180100v, symObjAddr: 0x1D650, symBinAddr: 0x100020464, symSize: 0x7C }
  - { offset: 0x14D02, size: 0x8, addend: 0x0, symName: __ZN8P2random7PR_initERNSt3__118basic_stringstreamIcNS0_11char_traitsIcEENS0_9allocatorIcEEEEjjjjj, symObjAddr: 0x17E04, symBinAddr: 0x10001AC18, symSize: 0xA94 }
  - { offset: 0x14D22, size: 0x8, addend: 0x0, symName: __ZZN8P2random7PR_initERNSt3__118basic_stringstreamIcNS0_11char_traitsIcEENS0_9allocatorIcEEEEjjjjjE3rng, symObjAddr: 0x7BB18, symBinAddr: 0x1000976F8, symSize: 0x0 }
  - { offset: 0x14E47, size: 0x8, addend: 0x0, symName: _.str.42, symObjAddr: 0x95820, symBinAddr: 0x100082F00, symSize: 0x0 }
  - { offset: 0x14E58, size: 0x8, addend: 0x0, symName: _.str.43, symObjAddr: 0x95840, symBinAddr: 0x100082F20, symSize: 0x0 }
  - { offset: 0x14E69, size: 0x8, addend: 0x0, symName: _.str.44, symObjAddr: 0x95860, symBinAddr: 0x100082F40, symSize: 0x0 }
  - { offset: 0x14E7A, size: 0x8, addend: 0x0, symName: _.str.45, symObjAddr: 0x95880, symBinAddr: 0x100082F60, symSize: 0x0 }
  - { offset: 0x14E8B, size: 0x8, addend: 0x0, symName: _.str.46, symObjAddr: 0x958A0, symBinAddr: 0x100082F80, symSize: 0x0 }
  - { offset: 0x14E9C, size: 0x8, addend: 0x0, symName: _.str.47, symObjAddr: 0x958C0, symBinAddr: 0x100082FA0, symSize: 0x0 }
  - { offset: 0x14EAE, size: 0x8, addend: 0x0, symName: _.str.53, symObjAddr: 0x958E0, symBinAddr: 0x100082FC0, symSize: 0x0 }
  - { offset: 0x15C3D, size: 0x8, addend: 0x0, symName: __ZNSt3__16vectorI13time_travelerNS_9allocatorIS1_EEE26__swap_out_circular_bufferERNS_14__split_bufferIS1_RS3_EE, symObjAddr: 0x34768, symBinAddr: 0x10003757C, symSize: 0x854 }
  - { offset: 0x15C96, size: 0x8, addend: 0x0, symName: __ZNSt3__16vectorI19MedianPriorityQueueNS_9allocatorIS1_EEE26__swap_out_circular_bufferERNS_14__split_bufferIS1_RS3_EE, symObjAddr: 0x3E500, symBinAddr: 0x100041314, symSize: 0x854 }
  - { offset: 0x15D4A, size: 0x8, addend: 0x0, symName: __ZNSt3__16vectorI5OrderNS_9allocatorIS1_EEE26__swap_out_circular_bufferERNS_14__split_bufferIS1_RS3_EE, symObjAddr: 0x52D48, symBinAddr: 0x100055B5C, symSize: 0x854 }
  - { offset: 0x15DA3, size: 0x8, addend: 0x0, symName: __ZNSt3__16vectorIjNS_9allocatorIjEEE26__swap_out_circular_bufferERNS_14__split_bufferIjRS2_EE, symObjAddr: 0x642AC, symBinAddr: 0x1000670C0, symSize: 0x854 }
  - { offset: 0x15FBF, size: 0x8, addend: 0x0, symName: __ZN6MarketC2Ejjbbbb, symObjAddr: 0x0, symBinAddr: 0x100002E14, symSize: 0xF48 }
  - { offset: 0x16062, size: 0x8, addend: 0x0, symName: __ZNSt3__16vectorI13time_travelerNS_9allocatorIS1_EEEC1B8ne180100Ev, symObjAddr: 0xF48, symBinAddr: 0x100003D5C, symSize: 0x78 }
  - { offset: 0x1608C, size: 0x8, addend: 0x0, symName: __ZN6TraderC1Ej, symObjAddr: 0xFC0, symBinAddr: 0x100003DD4, symSize: 0x80 }
  - { offset: 0x160C4, size: 0x8, addend: 0x0, symName: __ZNSt3__16vectorI6TraderNS_9allocatorIS1_EEEC1EmRKS1_, symObjAddr: 0x1040, symBinAddr: 0x100003E54, symSize: 0x88 }
  - { offset: 0x1610E, size: 0x8, addend: 0x0, symName: __ZNSt3__16vectorINS_14priority_queueI5OrderNS0_IS2_NS_9allocatorIS2_EEEE18BuyOrderComparatorEENS3_IS7_EEEC1Em, symObjAddr: 0x10C8, symBinAddr: 0x100003EDC, symSize: 0x80 }
  - { offset: 0x16149, size: 0x8, addend: 0x0, symName: __ZNSt3__16vectorINS_14priority_queueI5OrderNS0_IS2_NS_9allocatorIS2_EEEE19SellOrderComparatorEENS3_IS7_EEEC1Em, symObjAddr: 0x1148, symBinAddr: 0x100003F5C, symSize: 0x80 }
  - { offset: 0x16184, size: 0x8, addend: 0x0, symName: __ZNSt3__16vectorI19MedianPriorityQueueNS_9allocatorIS1_EEEC1B8ne180100Ev, symObjAddr: 0x11C8, symBinAddr: 0x100003FDC, symSize: 0x78 }
  - { offset: 0x161AE, size: 0x8, addend: 0x0, symName: __ZNSt3__16vectorI13time_travelerNS_9allocatorIS1_EEE6resizeEm, symObjAddr: 0x1240, symBinAddr: 0x100004054, symSize: 0x1EC }
  - { offset: 0x161F4, size: 0x8, addend: 0x0, symName: __ZNSt3__16vectorI19MedianPriorityQueueNS_9allocatorIS1_EEE6resizeEm, symObjAddr: 0x142C, symBinAddr: 0x100004240, symSize: 0x1EC }
  - { offset: 0x1623A, size: 0x8, addend: 0x0, symName: __ZNSt3__16vectorI6TraderNS_9allocatorIS1_EEEixB8ne180100Em, symObjAddr: 0x1618, symBinAddr: 0x10000442C, symSize: 0x1D4 }
  - { offset: 0x16271, size: 0x8, addend: 0x0, symName: __ZNSt3__16vectorI19MedianPriorityQueueNS_9allocatorIS1_EEED1B8ne180100Ev, symObjAddr: 0x17EC, symBinAddr: 0x100004600, symSize: 0x78 }
  - { offset: 0x1629B, size: 0x8, addend: 0x0, symName: __ZNSt3__16vectorINS_14priority_queueI5OrderNS0_IS2_NS_9allocatorIS2_EEEE19SellOrderComparatorEENS3_IS7_EEED1B8ne180100Ev, symObjAddr: 0x1864, symBinAddr: 0x100004678, symSize: 0x78 }
  - { offset: 0x162C5, size: 0x8, addend: 0x0, symName: __ZNSt3__16vectorINS_14priority_queueI5OrderNS0_IS2_NS_9allocatorIS2_EEEE18BuyOrderComparatorEENS3_IS7_EEED1B8ne180100Ev, symObjAddr: 0x18DC, symBinAddr: 0x1000046F0, symSize: 0x78 }
  - { offset: 0x162EF, size: 0x8, addend: 0x0, symName: __ZNSt3__16vectorI6TraderNS_9allocatorIS1_EEED1B8ne180100Ev, symObjAddr: 0x1954, symBinAddr: 0x100004768, symSize: 0x78 }
  - { offset: 0x16319, size: 0x8, addend: 0x0, symName: __ZNSt3__16vectorI13time_travelerNS_9allocatorIS1_EEED1B8ne180100Ev, symObjAddr: 0x19CC, symBinAddr: 0x1000047E0, symSize: 0x78 }
  - { offset: 0x16343, size: 0x8, addend: 0x0, symName: __ZN6MarketC1Ejjbbbb, symObjAddr: 0x1A44, symBinAddr: 0x100004858, symSize: 0x19C }
  - { offset: 0x163C2, size: 0x8, addend: 0x0, symName: __ZN6Market16process_input_TLEv, symObjAddr: 0x1BE0, symBinAddr: 0x1000049F4, symSize: 0x1FD0 }
  - { offset: 0x164A4, size: 0x8, addend: 0x0, symName: __ZNKSt3__19basic_iosIcNS_11char_traitsIcEEEcvbB8ne180100Ev, symObjAddr: 0x3BB0, symBinAddr: 0x1000069C4, symSize: 0xFC }
  - { offset: 0x164CA, size: 0x8, addend: 0x0, symName: __ZN6Market18outputMedianPricesEj, symObjAddr: 0x4E5C, symBinAddr: 0x100007C70, symSize: 0x5C4 }
  - { offset: 0x16533, size: 0x8, addend: 0x0, symName: __ZN5OrderC1Ejjjbjjj, symObjAddr: 0x5420, symBinAddr: 0x100008234, symSize: 0x104 }
  - { offset: 0x165BF, size: 0x8, addend: 0x0, symName: __ZN6Market19updateTimeTravelersERK5Orderj, symObjAddr: 0x5524, symBinAddr: 0x100008338, symSize: 0x3B4C }
  - { offset: 0x16614, size: 0x8, addend: 0x0, symName: __ZNSt3__16vectorINS_14priority_queueI5OrderNS0_IS2_NS_9allocatorIS2_EEEE18BuyOrderComparatorEENS3_IS7_EEEixB8ne180100Em, symObjAddr: 0x9070, symBinAddr: 0x10000BE84, symSize: 0x1CC }
  - { offset: 0x16651, size: 0x8, addend: 0x0, symName: __ZNSt3__114priority_queueI5OrderNS_6vectorIS1_NS_9allocatorIS1_EEEE18BuyOrderComparatorE7emplaceIJRjS9_S9_RbS9_S9_jEEEvDpOT_, symObjAddr: 0x923C, symBinAddr: 0x10000C050, symSize: 0x61C }
  - { offset: 0x16713, size: 0x8, addend: 0x0, symName: __ZN6Market11matchOrdersEj, symObjAddr: 0x9858, symBinAddr: 0x10000C66C, symSize: 0x1C48 }
  - { offset: 0x167C0, size: 0x8, addend: 0x0, symName: __ZNSt3__16vectorINS_14priority_queueI5OrderNS0_IS2_NS_9allocatorIS2_EEEE19SellOrderComparatorEENS3_IS7_EEEixB8ne180100Em, symObjAddr: 0xB4A0, symBinAddr: 0x10000E2B4, symSize: 0x1CC }
  - { offset: 0x167F7, size: 0x8, addend: 0x0, symName: __ZNSt3__114priority_queueI5OrderNS_6vectorIS1_NS_9allocatorIS1_EEEE19SellOrderComparatorE7emplaceIJRjS9_S9_RbS9_S9_jEEEvDpOT_, symObjAddr: 0xB66C, symBinAddr: 0x10000E480, symSize: 0x61C }
  - { offset: 0x168B9, size: 0x8, addend: 0x0, symName: __ZN6Market16process_input_PRERNSt3__118basic_stringstreamIcNS0_11char_traitsIcEENS0_9allocatorIcEEEE, symObjAddr: 0xBC88, symBinAddr: 0x10000EA9C, symSize: 0x22A0 }
  - { offset: 0x169BE, size: 0x8, addend: 0x0, symName: __ZNSt3__112basic_stringIcNS_11char_traitsIcEENS_9allocatorIcEEEC1B8ne180100ILi0EEEPKc, symObjAddr: 0xDF28, symBinAddr: 0x100010D3C, symSize: 0x80 }
  - { offset: 0x169FD, size: 0x8, addend: 0x0, symName: __ZN6Market20printEndOfDaySummaryEv, symObjAddr: 0xFAC4, symBinAddr: 0x1000128D8, symSize: 0x244 }
  - { offset: 0x16A25, size: 0x8, addend: 0x0, symName: __ZN6Market15printTraderInfoEv, symObjAddr: 0xFD08, symBinAddr: 0x100012B1C, symSize: 0xB14 }
  - { offset: 0x16AAA, size: 0x8, addend: 0x0, symName: __ZNSt3__16vectorI6TraderNS_9allocatorIS1_EEE5beginB8ne180100Ev, symObjAddr: 0x1081C, symBinAddr: 0x100013630, symSize: 0x2A8 }
  - { offset: 0x16AD3, size: 0x8, addend: 0x0, symName: __ZNSt3__16vectorI6TraderNS_9allocatorIS1_EEE3endB8ne180100Ev, symObjAddr: 0x10AC4, symBinAddr: 0x1000138D8, symSize: 0x2AC }
  - { offset: 0x16AFC, size: 0x8, addend: 0x0, symName: __ZNKSt3__111__wrap_iterIP6TraderEdeB8ne180100Ev, symObjAddr: 0x10E34, symBinAddr: 0x100013C48, symSize: 0xF4 }
  - { offset: 0x16B22, size: 0x8, addend: 0x0, symName: __ZNSt3__111__wrap_iterIP6TraderEppB8ne180100Ev, symObjAddr: 0x10F28, symBinAddr: 0x100013D3C, symSize: 0x1A8 }
  - { offset: 0x16B48, size: 0x8, addend: 0x0, symName: __ZNKSt3__114priority_queueI5OrderNS_6vectorIS1_NS_9allocatorIS1_EEEE18BuyOrderComparatorE5emptyB8ne180100Ev, symObjAddr: 0x110D0, symBinAddr: 0x100013EE4, symSize: 0xB4 }
  - { offset: 0x16B6E, size: 0x8, addend: 0x0, symName: __ZNKSt3__114priority_queueI5OrderNS_6vectorIS1_NS_9allocatorIS1_EEEE19SellOrderComparatorE5emptyB8ne180100Ev, symObjAddr: 0x11184, symBinAddr: 0x100013F98, symSize: 0xB4 }
  - { offset: 0x16B94, size: 0x8, addend: 0x0, symName: __ZNKSt3__114priority_queueI5OrderNS_6vectorIS1_NS_9allocatorIS1_EEEE18BuyOrderComparatorE3topB8ne180100Ev, symObjAddr: 0x11238, symBinAddr: 0x10001404C, symSize: 0xF8 }
  - { offset: 0x16BBA, size: 0x8, addend: 0x0, symName: __ZNKSt3__114priority_queueI5OrderNS_6vectorIS1_NS_9allocatorIS1_EEEE19SellOrderComparatorE3topB8ne180100Ev, symObjAddr: 0x11330, symBinAddr: 0x100014144, symSize: 0xF8 }
  - { offset: 0x16BE0, size: 0x8, addend: 0x0, symName: __ZN6Trader6boughtEjj, symObjAddr: 0x1152C, symBinAddr: 0x100014340, symSize: 0x1B4 }
  - { offset: 0x16C22, size: 0x8, addend: 0x0, symName: __ZN6Trader4soldEjj, symObjAddr: 0x116E0, symBinAddr: 0x1000144F4, symSize: 0x1F0 }
  - { offset: 0x16C64, size: 0x8, addend: 0x0, symName: __ZNSt3__16vectorI19MedianPriorityQueueNS_9allocatorIS1_EEEixB8ne180100Em, symObjAddr: 0x118D0, symBinAddr: 0x1000146E4, symSize: 0x1CC }
  - { offset: 0x16C9B, size: 0x8, addend: 0x0, symName: __ZN19MedianPriorityQueue6insertEj, symObjAddr: 0x11A9C, symBinAddr: 0x1000148B0, symSize: 0x4C4 }
  - { offset: 0x16CD7, size: 0x8, addend: 0x0, symName: __ZNSt3__114priority_queueI5OrderNS_6vectorIS1_NS_9allocatorIS1_EEEE18BuyOrderComparatorE3popEv, symObjAddr: 0x11F60, symBinAddr: 0x100014D74, symSize: 0x408 }
  - { offset: 0x16D00, size: 0x8, addend: 0x0, symName: __ZNSt3__114priority_queueI5OrderNS_6vectorIS1_NS_9allocatorIS1_EEEE19SellOrderComparatorE3popEv, symObjAddr: 0x12368, symBinAddr: 0x10001517C, symSize: 0x408 }
  - { offset: 0x16D29, size: 0x8, addend: 0x0, symName: __ZNSt3__114priority_queueI5OrderNS_6vectorIS1_NS_9allocatorIS1_EEEE18BuyOrderComparatorE4pushERKS1_, symObjAddr: 0x12770, symBinAddr: 0x100015584, symSize: 0x458 }
  - { offset: 0x16D62, size: 0x8, addend: 0x0, symName: __ZNSt3__114priority_queueI5OrderNS_6vectorIS1_NS_9allocatorIS1_EEEE19SellOrderComparatorE4pushERKS1_, symObjAddr: 0x12BC8, symBinAddr: 0x1000159DC, symSize: 0x458 }
  - { offset: 0x16D9B, size: 0x8, addend: 0x0, symName: __ZN19MedianPriorityQueue9getMedianEv, symObjAddr: 0x13020, symBinAddr: 0x100015E34, symSize: 0x6DC }
  - { offset: 0x16DC3, size: 0x8, addend: 0x0, symName: __ZNSt3__16vectorI13time_travelerNS_9allocatorIS1_EEEixB8ne180100Em, symObjAddr: 0x136FC, symBinAddr: 0x100016510, symSize: 0x1CC }
  - { offset: 0x16DFA, size: 0x8, addend: 0x0, symName: __ZN6Market21printTimeTravelerInfoEv, symObjAddr: 0x138C8, symBinAddr: 0x1000166DC, symSize: 0xD0C }
  - { offset: 0x16E5A, size: 0x8, addend: 0x0, symName: __ZN19MedianPriorityQueue12balanceHeapsEv, symObjAddr: 0x145D4, symBinAddr: 0x1000173E8, symSize: 0x458 }
  - { offset: 0x16E82, size: 0x8, addend: 0x0, symName: __ZNKSt3__114priority_queueIjNS_6vectorIjNS_9allocatorIjEEEENS_4lessIjEEE4sizeB8ne180100Ev, symObjAddr: 0x14A2C, symBinAddr: 0x100017840, symSize: 0xB0 }
  - { offset: 0x16EA8, size: 0x8, addend: 0x0, symName: __ZNKSt3__114priority_queueIjNS_6vectorIjNS_9allocatorIjEEEENS_7greaterIjEEE4sizeB8ne180100Ev, symObjAddr: 0x14ADC, symBinAddr: 0x1000178F0, symSize: 0xB0 }
  - { offset: 0x16ECE, size: 0x8, addend: 0x0, symName: __ZNSt3__114priority_queueIjNS_6vectorIjNS_9allocatorIjEEEENS_7greaterIjEEE4pushERKj, symObjAddr: 0x14B8C, symBinAddr: 0x1000179A0, symSize: 0x458 }
  - { offset: 0x16F07, size: 0x8, addend: 0x0, symName: __ZNKSt3__114priority_queueIjNS_6vectorIjNS_9allocatorIjEEEENS_4lessIjEEE3topB8ne180100Ev, symObjAddr: 0x14FE4, symBinAddr: 0x100017DF8, symSize: 0xF8 }
  - { offset: 0x16F2D, size: 0x8, addend: 0x0, symName: __ZNSt3__114priority_queueIjNS_6vectorIjNS_9allocatorIjEEEENS_4lessIjEEE3popEv, symObjAddr: 0x150DC, symBinAddr: 0x100017EF0, symSize: 0x408 }
  - { offset: 0x16F56, size: 0x8, addend: 0x0, symName: __ZNSt3__114priority_queueIjNS_6vectorIjNS_9allocatorIjEEEENS_4lessIjEEE4pushERKj, symObjAddr: 0x154E4, symBinAddr: 0x1000182F8, symSize: 0x458 }
  - { offset: 0x16F8F, size: 0x8, addend: 0x0, symName: __ZNKSt3__114priority_queueIjNS_6vectorIjNS_9allocatorIjEEEENS_7greaterIjEEE3topB8ne180100Ev, symObjAddr: 0x1593C, symBinAddr: 0x100018750, symSize: 0xF8 }
  - { offset: 0x16FB5, size: 0x8, addend: 0x0, symName: __ZNSt3__114priority_queueIjNS_6vectorIjNS_9allocatorIjEEEENS_7greaterIjEEE3popEv, symObjAddr: 0x15A34, symBinAddr: 0x100018848, symSize: 0x408 }
  - { offset: 0x16FDE, size: 0x8, addend: 0x0, symName: __ZNKSt3__114priority_queueIjNS_6vectorIjNS_9allocatorIjEEEENS_4lessIjEEE5emptyB8ne180100Ev, symObjAddr: 0x15E3C, symBinAddr: 0x100018C50, symSize: 0xB4 }
  - { offset: 0x17004, size: 0x8, addend: 0x0, symName: __ZNKSt3__114priority_queueIjNS_6vectorIjNS_9allocatorIjEEEENS_7greaterIjEEE5emptyB8ne180100Ev, symObjAddr: 0x15EF0, symBinAddr: 0x100018D04, symSize: 0xB4 }
  - { offset: 0x1702A, size: 0x8, addend: 0x0, symName: _main, symObjAddr: 0x15FA4, symBinAddr: 0x100018DB8, symSize: 0x16FC }
  - { offset: 0x17170, size: 0x8, addend: 0x0, symName: __ZNSt3__118basic_stringstreamIcNS_11char_traitsIcEENS_9allocatorIcEEEC1B8ne180100Ev, symObjAddr: 0x17A08, symBinAddr: 0x10001A81C, symSize: 0x3FC }
  - { offset: 0x1719A, size: 0x8, addend: 0x0, symName: __ZN6MarketD1Ev, symObjAddr: 0x18898, symBinAddr: 0x10001B6AC, symSize: 0x78 }
  - { offset: 0x171CB, size: 0x8, addend: 0x0, symName: __ZNSt3__118basic_stringstreamIcNS_11char_traitsIcEENS_9allocatorIcEEED1Ev, symObjAddr: 0x18910, symBinAddr: 0x10001B724, symSize: 0x8C }
  - { offset: 0x171F8, size: 0x8, addend: 0x0, symName: __ZN6TraderC2Ej, symObjAddr: 0x1899C, symBinAddr: 0x10001B7B0, symSize: 0x1E8 }
  - { offset: 0x17230, size: 0x8, addend: 0x0, symName: __ZN5OrderC2Ejjjbjjj, symObjAddr: 0x18B84, symBinAddr: 0x10001B998, symSize: 0x3D4 }
  - { offset: 0x172BC, size: 0x8, addend: 0x0, symName: __ZNKSt3__111__wrap_iterIP6TraderE4baseB8ne180100Ev, symObjAddr: 0x18FF4, symBinAddr: 0x10001BE08, symSize: 0xAC }
  - { offset: 0x172EC, size: 0x8, addend: 0x0, symName: __ZNKSt3__16__lessIvvEclB8ne180100IjjEEbRKT_RKT0_, symObjAddr: 0x19358, symBinAddr: 0x10001C16C, symSize: 0x13C }
  - { offset: 0x17340, size: 0x8, addend: 0x0, symName: __ZN8P2random4PrngC1Ey, symObjAddr: 0x19494, symBinAddr: 0x10001C2A8, symSize: 0x80 }
  - { offset: 0x17378, size: 0x8, addend: 0x0, symName: __ZN8P2random4PrngclEv, symObjAddr: 0x19514, symBinAddr: 0x10001C328, symSize: 0x298 }
  - { offset: 0x173C8, size: 0x8, addend: 0x0, symName: __ZN8P2random4PrngC2Ey, symObjAddr: 0x197AC, symBinAddr: 0x10001C5C0, symSize: 0x11C }
  - { offset: 0x17400, size: 0x8, addend: 0x0, symName: __ZN8P2random4Prng6reseedEy, symObjAddr: 0x198C8, symBinAddr: 0x10001C6DC, symSize: 0x84 }
  - { offset: 0x17434, size: 0x8, addend: 0x0, symName: __ZN8P2random4Prng6reseedEyy, symObjAddr: 0x1994C, symBinAddr: 0x10001C760, symSize: 0x184 }
  - { offset: 0x17476, size: 0x8, addend: 0x0, symName: __ZN6MarketD2Ev, symObjAddr: 0x19AD0, symBinAddr: 0x10001C8E4, symSize: 0xAC }
  - { offset: 0x174A2, size: 0x8, addend: 0x0, symName: __ZNSt3__118basic_stringstreamIcNS_11char_traitsIcEENS_9allocatorIcEEED2Ev, symObjAddr: 0x19B7C, symBinAddr: 0x10001C990, symSize: 0x264 }
  - { offset: 0x174DC, size: 0x8, addend: 0x0, symName: __ZThn16_NSt3__118basic_stringstreamIcNS_11char_traitsIcEENS_9allocatorIcEEED1Ev, symObjAddr: 0x19DE0, symBinAddr: 0x10001CBF4, symSize: 0x1C }
  - { offset: 0x174F3, size: 0x8, addend: 0x0, symName: __ZTv0_n24_NSt3__118basic_stringstreamIcNS_11char_traitsIcEENS_9allocatorIcEEED1Ev, symObjAddr: 0x19DFC, symBinAddr: 0x10001CC10, symSize: 0xB0 }
  - { offset: 0x1750F, size: 0x8, addend: 0x0, symName: __ZNSt3__115basic_stringbufIcNS_11char_traitsIcEENS_9allocatorIcEEED1Ev, symObjAddr: 0x19EAC, symBinAddr: 0x10001CCC0, symSize: 0x78 }
  - { offset: 0x1753C, size: 0x8, addend: 0x0, symName: __ZNSt3__115basic_stringbufIcNS_11char_traitsIcEENS_9allocatorIcEEED2Ev, symObjAddr: 0x19F24, symBinAddr: 0x10001CD38, symSize: 0xD4 }
  - { offset: 0x17569, size: 0x8, addend: 0x0, symName: __ZNSt3__16vectorI6TraderNS_9allocatorIS1_EEEC2EmRKS1_, symObjAddr: 0x19FF8, symBinAddr: 0x10001CE0C, symSize: 0x5A8 }
  - { offset: 0x175DB, size: 0x8, addend: 0x0, symName: __ZNSt3__117__compressed_pairIP6TraderNS_9allocatorIS1_EEEC1B8ne180100IDnNS_18__default_init_tagEEEOT_OT0_, symObjAddr: 0x1A5A0, symBinAddr: 0x10001D3B4, symSize: 0x88 }
  - { offset: 0x17633, size: 0x8, addend: 0x0, symName: __ZNSt3__16vectorI6TraderNS_9allocatorIS1_EEE16__destroy_vectorC1B8ne180100ERS4_, symObjAddr: 0x1A8D4, symBinAddr: 0x10001D6E8, symSize: 0x80 }
  - { offset: 0x1766C, size: 0x8, addend: 0x0, symName: __ZNSt3__16vectorI6TraderNS_9allocatorIS1_EEE11__vallocateB8ne180100Em, symObjAddr: 0x1A954, symBinAddr: 0x10001D768, symSize: 0x5E8 }
  - { offset: 0x176B6, size: 0x8, addend: 0x0, symName: __ZNSt3__16vectorI6TraderNS_9allocatorIS1_EEE18__construct_at_endEmRKS1_, symObjAddr: 0x1AF3C, symBinAddr: 0x10001DD50, symSize: 0x61C }
  - { offset: 0x17740, size: 0x8, addend: 0x0, symName: __ZNSt3__128__exception_guard_exceptionsINS_6vectorI6TraderNS_9allocatorIS2_EEE16__destroy_vectorEE10__completeB8ne180100Ev, symObjAddr: 0x1B558, symBinAddr: 0x10001E36C, symSize: 0xD8 }
  - { offset: 0x17766, size: 0x8, addend: 0x0, symName: __ZNSt3__128__exception_guard_exceptionsINS_6vectorI6TraderNS_9allocatorIS2_EEE16__destroy_vectorEED1B8ne180100Ev, symObjAddr: 0x1B630, symBinAddr: 0x10001E444, symSize: 0x78 }
  - { offset: 0x17790, size: 0x8, addend: 0x0, symName: __ZNSt3__117__compressed_pairIP6TraderNS_9allocatorIS1_EEEC2B8ne180100IDnNS_18__default_init_tagEEEOT_OT0_, symObjAddr: 0x1B6A8, symBinAddr: 0x10001E4BC, symSize: 0x140 }
  - { offset: 0x177E8, size: 0x8, addend: 0x0, symName: __ZNSt3__122__compressed_pair_elemIP6TraderLi0ELb0EEC2B8ne180100IDnvEEOT_, symObjAddr: 0x1B7E8, symBinAddr: 0x10001E5FC, symSize: 0xBC }
  - { offset: 0x1782A, size: 0x8, addend: 0x0, symName: __ZNSt3__122__compressed_pair_elemINS_9allocatorI6TraderEELi1ELb1EEC2B8ne180100ENS_18__default_init_tagE, symObjAddr: 0x1B8A4, symBinAddr: 0x10001E6B8, symSize: 0x84 }
  - { offset: 0x1785F, size: 0x8, addend: 0x0, symName: __ZNSt3__19allocatorI6TraderEC2B8ne180100Ev, symObjAddr: 0x1B928, symBinAddr: 0x10001E73C, symSize: 0x84 }
  - { offset: 0x17889, size: 0x8, addend: 0x0, symName: __ZNSt3__116__non_trivial_ifILb1ENS_9allocatorI6TraderEEEC2B8ne180100Ev, symObjAddr: 0x1B9AC, symBinAddr: 0x10001E7C0, symSize: 0x54 }
  - { offset: 0x178B3, size: 0x8, addend: 0x0, symName: __ZNSt3__128__exception_guard_exceptionsINS_6vectorI6TraderNS_9allocatorIS2_EEE16__destroy_vectorEEC1B8ne180100ES6_, symObjAddr: 0x1BA00, symBinAddr: 0x10001E814, symSize: 0x284 }
  - { offset: 0x178F0, size: 0x8, addend: 0x0, symName: __ZNSt3__128__exception_guard_exceptionsINS_6vectorI6TraderNS_9allocatorIS2_EEE16__destroy_vectorEEC2B8ne180100ES6_, symObjAddr: 0x1BC84, symBinAddr: 0x10001EA98, symSize: 0x2B4 }
  - { offset: 0x1792D, size: 0x8, addend: 0x0, symName: __ZNSt3__16vectorI6TraderNS_9allocatorIS1_EEE16__destroy_vectorC2B8ne180100ERS4_, symObjAddr: 0x1BF38, symBinAddr: 0x10001ED4C, symSize: 0x108 }
  - { offset: 0x17966, size: 0x8, addend: 0x0, symName: __ZNKSt3__16vectorI6TraderNS_9allocatorIS1_EEE8max_sizeEv, symObjAddr: 0x1C040, symBinAddr: 0x10001EE54, symSize: 0x3F4 }
  - { offset: 0x1798F, size: 0x8, addend: 0x0, symName: __ZNKSt3__16vectorI6TraderNS_9allocatorIS1_EEE20__throw_length_errorB8ne180100Ev, symObjAddr: 0x1C434, symBinAddr: 0x10001F248, symSize: 0x80 }
  - { offset: 0x179B5, size: 0x8, addend: 0x0, symName: __ZNSt3__16vectorI6TraderNS_9allocatorIS1_EEE7__allocB8ne180100Ev, symObjAddr: 0x1C738, symBinAddr: 0x10001F54C, symSize: 0xE4 }
  - { offset: 0x179DB, size: 0x8, addend: 0x0, symName: __ZNSt3__16vectorI6TraderNS_9allocatorIS1_EEE9__end_capB8ne180100Ev, symObjAddr: 0x1C81C, symBinAddr: 0x10001F630, symSize: 0x100 }
  - { offset: 0x17A01, size: 0x8, addend: 0x0, symName: __ZNKSt3__16vectorI6TraderNS_9allocatorIS1_EEE14__annotate_newB8ne180100Em, symObjAddr: 0x1C91C, symBinAddr: 0x10001F730, symSize: 0x268 }
  - { offset: 0x17A40, size: 0x8, addend: 0x0, symName: __ZNSt3__116allocator_traitsINS_9allocatorI6TraderEEE8max_sizeB8ne180100IS3_vEEmRKS3_, symObjAddr: 0x1CC88, symBinAddr: 0x10001FA9C, symSize: 0x24 }
  - { offset: 0x17A6E, size: 0x8, addend: 0x0, symName: __ZNKSt3__16vectorI6TraderNS_9allocatorIS1_EEE7__allocB8ne180100Ev, symObjAddr: 0x1CCAC, symBinAddr: 0x10001FAC0, symSize: 0xE4 }
  - { offset: 0x17A94, size: 0x8, addend: 0x0, symName: __ZNSt3__114numeric_limitsIlE3maxB8ne180100Ev, symObjAddr: 0x1CD90, symBinAddr: 0x10001FBA4, symSize: 0x14 }
  - { offset: 0x17AB2, size: 0x8, addend: 0x0, symName: __ZNKSt3__16__lessIvvEclB8ne180100ImmEEbRKT_RKT0_, symObjAddr: 0x1D06C, symBinAddr: 0x10001FE80, symSize: 0xEC }
  - { offset: 0x17B06, size: 0x8, addend: 0x0, symName: __ZNKSt3__19allocatorI6TraderE8max_sizeB8ne180100Ev, symObjAddr: 0x1D158, symBinAddr: 0x10001FF6C, symSize: 0x50 }
  - { offset: 0x17B2C, size: 0x8, addend: 0x0, symName: __ZNKSt3__117__compressed_pairIP6TraderNS_9allocatorIS1_EEE6secondB8ne180100Ev, symObjAddr: 0x1D1A8, symBinAddr: 0x10001FFBC, symSize: 0x108 }
  - { offset: 0x17B52, size: 0x8, addend: 0x0, symName: __ZNKSt3__122__compressed_pair_elemINS_9allocatorI6TraderEELi1ELb1EE5__getB8ne180100Ev, symObjAddr: 0x1D2B0, symBinAddr: 0x1000200C4, symSize: 0x74 }
  - { offset: 0x17B78, size: 0x8, addend: 0x0, symName: __ZNSt3__123__libcpp_numeric_limitsIlLb1EE3maxB8ne180100Ev, symObjAddr: 0x1D324, symBinAddr: 0x100020138, symSize: 0x8 }
  - { offset: 0x17B8C, size: 0x8, addend: 0x0, symName: __ZNSt12length_errorC1B8ne180100EPKc, symObjAddr: 0x1D3E0, symBinAddr: 0x1000201F4, symSize: 0x80 }
  - { offset: 0x17BC4, size: 0x8, addend: 0x0, symName: __ZNSt12length_errorC2B8ne180100EPKc, symObjAddr: 0x1D460, symBinAddr: 0x100020274, symSize: 0x120 }
  - { offset: 0x17BFC, size: 0x8, addend: 0x0, symName: __ZNSt3__19allocatorI6TraderE8allocateB8ne180100Em, symObjAddr: 0x1D580, symBinAddr: 0x100020394, symSize: 0xD0 }
  - { offset: 0x17C30, size: 0x8, addend: 0x0, symName: __ZNSt3__117__compressed_pairIP6TraderNS_9allocatorIS1_EEE6secondB8ne180100Ev, symObjAddr: 0x1D7DC, symBinAddr: 0x1000205F0, symSize: 0x108 }
  - { offset: 0x17C56, size: 0x8, addend: 0x0, symName: __ZNSt3__122__compressed_pair_elemINS_9allocatorI6TraderEELi1ELb1EE5__getB8ne180100Ev, symObjAddr: 0x1D8E4, symBinAddr: 0x1000206F8, symSize: 0x74 }
  - { offset: 0x17C7C, size: 0x8, addend: 0x0, symName: __ZNSt3__117__compressed_pairIP6TraderNS_9allocatorIS1_EEE5firstB8ne180100Ev, symObjAddr: 0x1D958, symBinAddr: 0x10002076C, symSize: 0x124 }
  - { offset: 0x17CA2, size: 0x8, addend: 0x0, symName: __ZNSt3__122__compressed_pair_elemIP6TraderLi0ELb0EE5__getB8ne180100Ev, symObjAddr: 0x1DA7C, symBinAddr: 0x100020890, symSize: 0xAC }
  - { offset: 0x17CC8, size: 0x8, addend: 0x0, symName: __ZNKSt3__16vectorI6TraderNS_9allocatorIS1_EEE31__annotate_contiguous_containerB8ne180100EPKvS6_, symObjAddr: 0x1DB28, symBinAddr: 0x10002093C, symSize: 0x1A8 }
  - { offset: 0x17D2A, size: 0x8, addend: 0x0, symName: __ZNKSt3__16vectorI6TraderNS_9allocatorIS1_EEE4dataB8ne180100Ev, symObjAddr: 0x1DCD0, symBinAddr: 0x100020AE4, symSize: 0xB0 }
  - { offset: 0x17D50, size: 0x8, addend: 0x0, symName: __ZNKSt3__16vectorI6TraderNS_9allocatorIS1_EEE8capacityB8ne180100Ev, symObjAddr: 0x1DD80, symBinAddr: 0x100020B94, symSize: 0x144 }
  - { offset: 0x17D76, size: 0x8, addend: 0x0, symName: __ZNKSt3__16vectorI6TraderNS_9allocatorIS1_EEE9__end_capB8ne180100Ev, symObjAddr: 0x1DED8, symBinAddr: 0x100020CEC, symSize: 0x100 }
  - { offset: 0x17D9C, size: 0x8, addend: 0x0, symName: __ZNKSt3__117__compressed_pairIP6TraderNS_9allocatorIS1_EEE5firstB8ne180100Ev, symObjAddr: 0x1DFD8, symBinAddr: 0x100020DEC, symSize: 0x124 }
  - { offset: 0x17DC2, size: 0x8, addend: 0x0, symName: __ZNKSt3__122__compressed_pair_elemIP6TraderLi0ELb0EE5__getB8ne180100Ev, symObjAddr: 0x1E0FC, symBinAddr: 0x100020F10, symSize: 0xAC }
  - { offset: 0x17E01, size: 0x8, addend: 0x0, symName: __ZNSt3__16vectorI6TraderNS_9allocatorIS1_EEE21_ConstructTransactionC1B8ne180100ERS4_m, symObjAddr: 0x1E1A8, symBinAddr: 0x100020FBC, symSize: 0x88 }
  - { offset: 0x17E49, size: 0x8, addend: 0x0, symName: __ZNSt3__116allocator_traitsINS_9allocatorI6TraderEEE9constructB8ne180100IS2_JRKS2_EvEEvRS3_PT_DpOT0_, symObjAddr: 0x1E230, symBinAddr: 0x100021044, symSize: 0x8C }
  - { offset: 0x17EA0, size: 0x8, addend: 0x0, symName: __ZNSt3__16vectorI6TraderNS_9allocatorIS1_EEE21_ConstructTransactionD1B8ne180100Ev, symObjAddr: 0x1E2BC, symBinAddr: 0x1000210D0, symSize: 0x78 }
  - { offset: 0x17ECA, size: 0x8, addend: 0x0, symName: __ZNSt3__16vectorI6TraderNS_9allocatorIS1_EEE21_ConstructTransactionC2B8ne180100ERS4_m, symObjAddr: 0x1E334, symBinAddr: 0x100021148, symSize: 0x3E0 }
  - { offset: 0x17F12, size: 0x8, addend: 0x0, symName: __ZNKSt3__16vectorI6TraderNS_9allocatorIS1_EEE19__annotate_increaseB8ne180100Em, symObjAddr: 0x1E714, symBinAddr: 0x100021528, symSize: 0x35C }
  - { offset: 0x17F47, size: 0x8, addend: 0x0, symName: __ZNKSt3__16vectorI6TraderNS_9allocatorIS1_EEE4sizeB8ne180100Ev, symObjAddr: 0x1EA70, symBinAddr: 0x100021884, symSize: 0xF8 }
  - { offset: 0x17F6D, size: 0x8, addend: 0x0, symName: __ZNSt3__19allocatorI6TraderE9constructB8ne180100IS1_JRKS1_EEEvPT_DpOT0_, symObjAddr: 0x1EB68, symBinAddr: 0x10002197C, symSize: 0xA8 }
  - { offset: 0x17FC3, size: 0x8, addend: 0x0, symName: __ZNSt3__16vectorI6TraderNS_9allocatorIS1_EEE21_ConstructTransactionD2B8ne180100Ev, symObjAddr: 0x1EC10, symBinAddr: 0x100021A24, symSize: 0x390 }
  - { offset: 0x17FED, size: 0x8, addend: 0x0, symName: __ZNKSt3__16vectorI6TraderNS_9allocatorIS1_EEE17__annotate_shrinkB8ne180100Em, symObjAddr: 0x1EFA0, symBinAddr: 0x100021DB4, symSize: 0x268 }
  - { offset: 0x18022, size: 0x8, addend: 0x0, symName: __ZNSt3__128__exception_guard_exceptionsINS_6vectorI6TraderNS_9allocatorIS2_EEE16__destroy_vectorEED2B8ne180100Ev, symObjAddr: 0x1F208, symBinAddr: 0x10002201C, symSize: 0x17C }
  - { offset: 0x1804C, size: 0x8, addend: 0x0, symName: __ZNSt3__16vectorI6TraderNS_9allocatorIS1_EEE16__destroy_vectorclB8ne180100Ev, symObjAddr: 0x1F384, symBinAddr: 0x100022198, symSize: 0x43C }
  - { offset: 0x18072, size: 0x8, addend: 0x0, symName: __ZNSt3__16vectorI6TraderNS_9allocatorIS1_EEE7__clearB8ne180100Ev, symObjAddr: 0x1F7C0, symBinAddr: 0x1000225D4, symSize: 0xB0 }
  - { offset: 0x18098, size: 0x8, addend: 0x0, symName: __ZNKSt3__16vectorI6TraderNS_9allocatorIS1_EEE17__annotate_deleteB8ne180100Ev, symObjAddr: 0x1F870, symBinAddr: 0x100022684, symSize: 0x278 }
  - { offset: 0x180BE, size: 0x8, addend: 0x0, symName: __ZNSt3__116allocator_traitsINS_9allocatorI6TraderEEE10deallocateB8ne180100ERS3_PS2_m, symObjAddr: 0x1FAE8, symBinAddr: 0x1000228FC, symSize: 0x34 }
  - { offset: 0x18100, size: 0x8, addend: 0x0, symName: __ZNSt3__16vectorI6TraderNS_9allocatorIS1_EEE22__base_destruct_at_endB8ne180100EPS1_, symObjAddr: 0x1FB1C, symBinAddr: 0x100022930, symSize: 0x1FC }
  - { offset: 0x18144, size: 0x8, addend: 0x0, symName: __ZNSt3__116allocator_traitsINS_9allocatorI6TraderEEE7destroyB8ne180100IS2_vEEvRS3_PT_, symObjAddr: 0x1FD18, symBinAddr: 0x100022B2C, symSize: 0x2C }
  - { offset: 0x18181, size: 0x8, addend: 0x0, symName: __ZNSt3__19allocatorI6TraderE7destroyB8ne180100EPS1_, symObjAddr: 0x1FD44, symBinAddr: 0x100022B58, symSize: 0x4C }
  - { offset: 0x181B5, size: 0x8, addend: 0x0, symName: __ZNSt3__19allocatorI6TraderE10deallocateB8ne180100EPS1_m, symObjAddr: 0x1FD90, symBinAddr: 0x100022BA4, symSize: 0x7C }
  - { offset: 0x181F7, size: 0x8, addend: 0x0, symName: __ZNSt3__16vectorINS_14priority_queueI5OrderNS0_IS2_NS_9allocatorIS2_EEEE18BuyOrderComparatorEENS3_IS7_EEEC2Em, symObjAddr: 0x1FF14, symBinAddr: 0x100022D28, symSize: 0x550 }
  - { offset: 0x1824D, size: 0x8, addend: 0x0, symName: __ZNSt3__117__compressed_pairIPNS_14priority_queueI5OrderNS_6vectorIS2_NS_9allocatorIS2_EEEE18BuyOrderComparatorEENS4_IS8_EEEC1B8ne180100IDnNS_18__default_init_tagEEEOT_OT0_, symObjAddr: 0x20464, symBinAddr: 0x100023278, symSize: 0x88 }
  - { offset: 0x182A5, size: 0x8, addend: 0x0, symName: __ZNSt3__16vectorINS_14priority_queueI5OrderNS0_IS2_NS_9allocatorIS2_EEEE18BuyOrderComparatorEENS3_IS7_EEE16__destroy_vectorC1B8ne180100ERS9_, symObjAddr: 0x20798, symBinAddr: 0x1000235AC, symSize: 0x80 }
  - { offset: 0x182DE, size: 0x8, addend: 0x0, symName: __ZNSt3__16vectorINS_14priority_queueI5OrderNS0_IS2_NS_9allocatorIS2_EEEE18BuyOrderComparatorEENS3_IS7_EEE11__vallocateB8ne180100Em, symObjAddr: 0x20818, symBinAddr: 0x10002362C, symSize: 0x5E0 }
  - { offset: 0x18328, size: 0x8, addend: 0x0, symName: __ZNSt3__16vectorINS_14priority_queueI5OrderNS0_IS2_NS_9allocatorIS2_EEEE18BuyOrderComparatorEENS3_IS7_EEE18__construct_at_endEm, symObjAddr: 0x20DF8, symBinAddr: 0x100023C0C, symSize: 0x5C8 }
  - { offset: 0x183A2, size: 0x8, addend: 0x0, symName: __ZNSt3__128__exception_guard_exceptionsINS_6vectorINS_14priority_queueI5OrderNS1_IS3_NS_9allocatorIS3_EEEE18BuyOrderComparatorEENS4_IS8_EEE16__destroy_vectorEE10__completeB8ne180100Ev, symObjAddr: 0x213C0, symBinAddr: 0x1000241D4, symSize: 0xD8 }
  - { offset: 0x183C8, size: 0x8, addend: 0x0, symName: __ZNSt3__128__exception_guard_exceptionsINS_6vectorINS_14priority_queueI5OrderNS1_IS3_NS_9allocatorIS3_EEEE18BuyOrderComparatorEENS4_IS8_EEE16__destroy_vectorEED1B8ne180100Ev, symObjAddr: 0x21498, symBinAddr: 0x1000242AC, symSize: 0x78 }
  - { offset: 0x183F2, size: 0x8, addend: 0x0, symName: __ZNSt3__117__compressed_pairIPNS_14priority_queueI5OrderNS_6vectorIS2_NS_9allocatorIS2_EEEE18BuyOrderComparatorEENS4_IS8_EEEC2B8ne180100IDnNS_18__default_init_tagEEEOT_OT0_, symObjAddr: 0x21510, symBinAddr: 0x100024324, symSize: 0x140 }
  - { offset: 0x1844A, size: 0x8, addend: 0x0, symName: __ZNSt3__122__compressed_pair_elemIPNS_14priority_queueI5OrderNS_6vectorIS2_NS_9allocatorIS2_EEEE18BuyOrderComparatorEELi0ELb0EEC2B8ne180100IDnvEEOT_, symObjAddr: 0x21650, symBinAddr: 0x100024464, symSize: 0xBC }
  - { offset: 0x1848C, size: 0x8, addend: 0x0, symName: __ZNSt3__122__compressed_pair_elemINS_9allocatorINS_14priority_queueI5OrderNS_6vectorIS3_NS1_IS3_EEEE18BuyOrderComparatorEEEELi1ELb1EEC2B8ne180100ENS_18__default_init_tagE, symObjAddr: 0x2170C, symBinAddr: 0x100024520, symSize: 0x84 }
  - { offset: 0x184C1, size: 0x8, addend: 0x0, symName: __ZNSt3__19allocatorINS_14priority_queueI5OrderNS_6vectorIS2_NS0_IS2_EEEE18BuyOrderComparatorEEEC2B8ne180100Ev, symObjAddr: 0x21790, symBinAddr: 0x1000245A4, symSize: 0x84 }
  - { offset: 0x184EB, size: 0x8, addend: 0x0, symName: __ZNSt3__116__non_trivial_ifILb1ENS_9allocatorINS_14priority_queueI5OrderNS_6vectorIS3_NS1_IS3_EEEE18BuyOrderComparatorEEEEEC2B8ne180100Ev, symObjAddr: 0x21814, symBinAddr: 0x100024628, symSize: 0x54 }
  - { offset: 0x18515, size: 0x8, addend: 0x0, symName: __ZNSt3__128__exception_guard_exceptionsINS_6vectorINS_14priority_queueI5OrderNS1_IS3_NS_9allocatorIS3_EEEE18BuyOrderComparatorEENS4_IS8_EEE16__destroy_vectorEEC1B8ne180100ESB_, symObjAddr: 0x21868, symBinAddr: 0x10002467C, symSize: 0x284 }
  - { offset: 0x18552, size: 0x8, addend: 0x0, symName: __ZNSt3__128__exception_guard_exceptionsINS_6vectorINS_14priority_queueI5OrderNS1_IS3_NS_9allocatorIS3_EEEE18BuyOrderComparatorEENS4_IS8_EEE16__destroy_vectorEEC2B8ne180100ESB_, symObjAddr: 0x21AEC, symBinAddr: 0x100024900, symSize: 0x2B4 }
  - { offset: 0x1858F, size: 0x8, addend: 0x0, symName: __ZNSt3__16vectorINS_14priority_queueI5OrderNS0_IS2_NS_9allocatorIS2_EEEE18BuyOrderComparatorEENS3_IS7_EEE16__destroy_vectorC2B8ne180100ERS9_, symObjAddr: 0x21DA0, symBinAddr: 0x100024BB4, symSize: 0x108 }
  - { offset: 0x185C8, size: 0x8, addend: 0x0, symName: __ZNKSt3__16vectorINS_14priority_queueI5OrderNS0_IS2_NS_9allocatorIS2_EEEE18BuyOrderComparatorEENS3_IS7_EEE8max_sizeEv, symObjAddr: 0x21EA8, symBinAddr: 0x100024CBC, symSize: 0x3F4 }
  - { offset: 0x185F1, size: 0x8, addend: 0x0, symName: __ZNKSt3__16vectorINS_14priority_queueI5OrderNS0_IS2_NS_9allocatorIS2_EEEE18BuyOrderComparatorEENS3_IS7_EEE20__throw_length_errorB8ne180100Ev, symObjAddr: 0x2229C, symBinAddr: 0x1000250B0, symSize: 0x80 }
  - { offset: 0x18617, size: 0x8, addend: 0x0, symName: __ZNSt3__16vectorINS_14priority_queueI5OrderNS0_IS2_NS_9allocatorIS2_EEEE18BuyOrderComparatorEENS3_IS7_EEE7__allocB8ne180100Ev, symObjAddr: 0x225A0, symBinAddr: 0x1000253B4, symSize: 0xE4 }
  - { offset: 0x1863D, size: 0x8, addend: 0x0, symName: __ZNSt3__16vectorINS_14priority_queueI5OrderNS0_IS2_NS_9allocatorIS2_EEEE18BuyOrderComparatorEENS3_IS7_EEE9__end_capB8ne180100Ev, symObjAddr: 0x22684, symBinAddr: 0x100025498, symSize: 0x100 }
  - { offset: 0x18663, size: 0x8, addend: 0x0, symName: __ZNKSt3__16vectorINS_14priority_queueI5OrderNS0_IS2_NS_9allocatorIS2_EEEE18BuyOrderComparatorEENS3_IS7_EEE14__annotate_newB8ne180100Em, symObjAddr: 0x22784, symBinAddr: 0x100025598, symSize: 0x258 }
  - { offset: 0x186A2, size: 0x8, addend: 0x0, symName: __ZNSt3__116allocator_traitsINS_9allocatorINS_14priority_queueI5OrderNS_6vectorIS3_NS1_IS3_EEEE18BuyOrderComparatorEEEEE8max_sizeB8ne180100IS9_vEEmRKS9_, symObjAddr: 0x229DC, symBinAddr: 0x1000257F0, symSize: 0x24 }
  - { offset: 0x186D0, size: 0x8, addend: 0x0, symName: __ZNKSt3__16vectorINS_14priority_queueI5OrderNS0_IS2_NS_9allocatorIS2_EEEE18BuyOrderComparatorEENS3_IS7_EEE7__allocB8ne180100Ev, symObjAddr: 0x22A00, symBinAddr: 0x100025814, symSize: 0xE4 }
  - { offset: 0x186F6, size: 0x8, addend: 0x0, symName: __ZNKSt3__19allocatorINS_14priority_queueI5OrderNS_6vectorIS2_NS0_IS2_EEEE18BuyOrderComparatorEEE8max_sizeB8ne180100Ev, symObjAddr: 0x22AE4, symBinAddr: 0x1000258F8, symSize: 0x4C }
  - { offset: 0x1871C, size: 0x8, addend: 0x0, symName: __ZNKSt3__117__compressed_pairIPNS_14priority_queueI5OrderNS_6vectorIS2_NS_9allocatorIS2_EEEE18BuyOrderComparatorEENS4_IS8_EEE6secondB8ne180100Ev, symObjAddr: 0x22B30, symBinAddr: 0x100025944, symSize: 0x108 }
  - { offset: 0x18742, size: 0x8, addend: 0x0, symName: __ZNKSt3__122__compressed_pair_elemINS_9allocatorINS_14priority_queueI5OrderNS_6vectorIS3_NS1_IS3_EEEE18BuyOrderComparatorEEEELi1ELb1EE5__getB8ne180100Ev, symObjAddr: 0x22C38, symBinAddr: 0x100025A4C, symSize: 0x74 }
  - { offset: 0x18768, size: 0x8, addend: 0x0, symName: __ZNSt3__19allocatorINS_14priority_queueI5OrderNS_6vectorIS2_NS0_IS2_EEEE18BuyOrderComparatorEEE8allocateB8ne180100Em, symObjAddr: 0x22CAC, symBinAddr: 0x100025AC0, symSize: 0xCC }
  - { offset: 0x1879C, size: 0x8, addend: 0x0, symName: __ZNSt3__117__compressed_pairIPNS_14priority_queueI5OrderNS_6vectorIS2_NS_9allocatorIS2_EEEE18BuyOrderComparatorEENS4_IS8_EEE6secondB8ne180100Ev, symObjAddr: 0x22D78, symBinAddr: 0x100025B8C, symSize: 0x108 }
  - { offset: 0x187C2, size: 0x8, addend: 0x0, symName: __ZNSt3__122__compressed_pair_elemINS_9allocatorINS_14priority_queueI5OrderNS_6vectorIS3_NS1_IS3_EEEE18BuyOrderComparatorEEEELi1ELb1EE5__getB8ne180100Ev, symObjAddr: 0x22E80, symBinAddr: 0x100025C94, symSize: 0x74 }
  - { offset: 0x187E8, size: 0x8, addend: 0x0, symName: __ZNSt3__117__compressed_pairIPNS_14priority_queueI5OrderNS_6vectorIS2_NS_9allocatorIS2_EEEE18BuyOrderComparatorEENS4_IS8_EEE5firstB8ne180100Ev, symObjAddr: 0x22EF4, symBinAddr: 0x100025D08, symSize: 0x124 }
  - { offset: 0x1880E, size: 0x8, addend: 0x0, symName: __ZNSt3__122__compressed_pair_elemIPNS_14priority_queueI5OrderNS_6vectorIS2_NS_9allocatorIS2_EEEE18BuyOrderComparatorEELi0ELb0EE5__getB8ne180100Ev, symObjAddr: 0x23018, symBinAddr: 0x100025E2C, symSize: 0xAC }
  - { offset: 0x18834, size: 0x8, addend: 0x0, symName: __ZNKSt3__16vectorINS_14priority_queueI5OrderNS0_IS2_NS_9allocatorIS2_EEEE18BuyOrderComparatorEENS3_IS7_EEE31__annotate_contiguous_containerB8ne180100EPKvSB_, symObjAddr: 0x230C4, symBinAddr: 0x100025ED8, symSize: 0x1A0 }
  - { offset: 0x18896, size: 0x8, addend: 0x0, symName: __ZNKSt3__16vectorINS_14priority_queueI5OrderNS0_IS2_NS_9allocatorIS2_EEEE18BuyOrderComparatorEENS3_IS7_EEE4dataB8ne180100Ev, symObjAddr: 0x23264, symBinAddr: 0x100026078, symSize: 0xB0 }
  - { offset: 0x188BC, size: 0x8, addend: 0x0, symName: __ZNKSt3__16vectorINS_14priority_queueI5OrderNS0_IS2_NS_9allocatorIS2_EEEE18BuyOrderComparatorEENS3_IS7_EEE8capacityB8ne180100Ev, symObjAddr: 0x23314, symBinAddr: 0x100026128, symSize: 0x144 }
  - { offset: 0x188E2, size: 0x8, addend: 0x0, symName: __ZNKSt3__16vectorINS_14priority_queueI5OrderNS0_IS2_NS_9allocatorIS2_EEEE18BuyOrderComparatorEENS3_IS7_EEE9__end_capB8ne180100Ev, symObjAddr: 0x2346C, symBinAddr: 0x100026280, symSize: 0x100 }
  - { offset: 0x18908, size: 0x8, addend: 0x0, symName: __ZNKSt3__117__compressed_pairIPNS_14priority_queueI5OrderNS_6vectorIS2_NS_9allocatorIS2_EEEE18BuyOrderComparatorEENS4_IS8_EEE5firstB8ne180100Ev, symObjAddr: 0x2356C, symBinAddr: 0x100026380, symSize: 0x124 }
  - { offset: 0x1892E, size: 0x8, addend: 0x0, symName: __ZNKSt3__122__compressed_pair_elemIPNS_14priority_queueI5OrderNS_6vectorIS2_NS_9allocatorIS2_EEEE18BuyOrderComparatorEELi0ELb0EE5__getB8ne180100Ev, symObjAddr: 0x23690, symBinAddr: 0x1000264A4, symSize: 0xAC }
  - { offset: 0x1896D, size: 0x8, addend: 0x0, symName: __ZNSt3__16vectorINS_14priority_queueI5OrderNS0_IS2_NS_9allocatorIS2_EEEE18BuyOrderComparatorEENS3_IS7_EEE21_ConstructTransactionC1B8ne180100ERS9_m, symObjAddr: 0x2373C, symBinAddr: 0x100026550, symSize: 0x88 }
  - { offset: 0x189B5, size: 0x8, addend: 0x0, symName: __ZNSt3__116allocator_traitsINS_9allocatorINS_14priority_queueI5OrderNS_6vectorIS3_NS1_IS3_EEEE18BuyOrderComparatorEEEEE9constructB8ne180100IS8_JEvEEvRS9_PT_DpOT0_, symObjAddr: 0x237C4, symBinAddr: 0x1000265D8, symSize: 0x2C }
  - { offset: 0x189F7, size: 0x8, addend: 0x0, symName: __ZNSt3__16vectorINS_14priority_queueI5OrderNS0_IS2_NS_9allocatorIS2_EEEE18BuyOrderComparatorEENS3_IS7_EEE21_ConstructTransactionD1B8ne180100Ev, symObjAddr: 0x237F0, symBinAddr: 0x100026604, symSize: 0x78 }
  - { offset: 0x18A21, size: 0x8, addend: 0x0, symName: __ZNSt3__16vectorINS_14priority_queueI5OrderNS0_IS2_NS_9allocatorIS2_EEEE18BuyOrderComparatorEENS3_IS7_EEE21_ConstructTransactionC2B8ne180100ERS9_m, symObjAddr: 0x23868, symBinAddr: 0x10002667C, symSize: 0x3D8 }
  - { offset: 0x18A69, size: 0x8, addend: 0x0, symName: __ZNKSt3__16vectorINS_14priority_queueI5OrderNS0_IS2_NS_9allocatorIS2_EEEE18BuyOrderComparatorEENS3_IS7_EEE19__annotate_increaseB8ne180100Em, symObjAddr: 0x23C40, symBinAddr: 0x100026A54, symSize: 0x344 }
  - { offset: 0x18A9E, size: 0x8, addend: 0x0, symName: __ZNKSt3__16vectorINS_14priority_queueI5OrderNS0_IS2_NS_9allocatorIS2_EEEE18BuyOrderComparatorEENS3_IS7_EEE4sizeB8ne180100Ev, symObjAddr: 0x23F84, symBinAddr: 0x100026D98, symSize: 0xF8 }
  - { offset: 0x18AC4, size: 0x8, addend: 0x0, symName: __ZNSt3__19allocatorINS_14priority_queueI5OrderNS_6vectorIS2_NS0_IS2_EEEE18BuyOrderComparatorEEE9constructB8ne180100IS7_JEEEvPT_DpOT0_, symObjAddr: 0x2407C, symBinAddr: 0x100026E90, symSize: 0x9C }
  - { offset: 0x18B06, size: 0x8, addend: 0x0, symName: __ZNSt3__114priority_queueI5OrderNS_6vectorIS1_NS_9allocatorIS1_EEEE18BuyOrderComparatorEC1B8ne180100Ev, symObjAddr: 0x24118, symBinAddr: 0x100026F2C, symSize: 0x78 }
  - { offset: 0x18B30, size: 0x8, addend: 0x0, symName: __ZNSt3__114priority_queueI5OrderNS_6vectorIS1_NS_9allocatorIS1_EEEE18BuyOrderComparatorEC2B8ne180100Ev, symObjAddr: 0x24190, symBinAddr: 0x100026FA4, symSize: 0x78 }
  - { offset: 0x18B5A, size: 0x8, addend: 0x0, symName: __ZNSt3__16vectorI5OrderNS_9allocatorIS1_EEEC1B8ne180100Ev, symObjAddr: 0x24208, symBinAddr: 0x10002701C, symSize: 0x78 }
  - { offset: 0x18B84, size: 0x8, addend: 0x0, symName: __ZNSt3__16vectorI5OrderNS_9allocatorIS1_EEEC2B8ne180100Ev, symObjAddr: 0x24280, symBinAddr: 0x100027094, symSize: 0x37C }
  - { offset: 0x18BAF, size: 0x8, addend: 0x0, symName: __ZNSt3__117__compressed_pairIP5OrderNS_9allocatorIS1_EEEC1B8ne180100IDnNS_18__default_init_tagEEEOT_OT0_, symObjAddr: 0x245FC, symBinAddr: 0x100027410, symSize: 0x88 }
  - { offset: 0x18C07, size: 0x8, addend: 0x0, symName: __ZNSt3__117__compressed_pairIP5OrderNS_9allocatorIS1_EEEC2B8ne180100IDnNS_18__default_init_tagEEEOT_OT0_, symObjAddr: 0x24684, symBinAddr: 0x100027498, symSize: 0x140 }
  - { offset: 0x18C5F, size: 0x8, addend: 0x0, symName: __ZNSt3__122__compressed_pair_elemIP5OrderLi0ELb0EEC2B8ne180100IDnvEEOT_, symObjAddr: 0x247C4, symBinAddr: 0x1000275D8, symSize: 0xBC }
  - { offset: 0x18CA1, size: 0x8, addend: 0x0, symName: __ZNSt3__122__compressed_pair_elemINS_9allocatorI5OrderEELi1ELb1EEC2B8ne180100ENS_18__default_init_tagE, symObjAddr: 0x24880, symBinAddr: 0x100027694, symSize: 0x84 }
  - { offset: 0x18CD6, size: 0x8, addend: 0x0, symName: __ZNSt3__19allocatorI5OrderEC2B8ne180100Ev, symObjAddr: 0x24904, symBinAddr: 0x100027718, symSize: 0x84 }
  - { offset: 0x18D00, size: 0x8, addend: 0x0, symName: __ZNSt3__116__non_trivial_ifILb1ENS_9allocatorI5OrderEEEC2B8ne180100Ev, symObjAddr: 0x24988, symBinAddr: 0x10002779C, symSize: 0x54 }
  - { offset: 0x18D2A, size: 0x8, addend: 0x0, symName: __ZNSt3__16vectorINS_14priority_queueI5OrderNS0_IS2_NS_9allocatorIS2_EEEE18BuyOrderComparatorEENS3_IS7_EEE21_ConstructTransactionD2B8ne180100Ev, symObjAddr: 0x249DC, symBinAddr: 0x1000277F0, symSize: 0x390 }
  - { offset: 0x18D54, size: 0x8, addend: 0x0, symName: __ZNKSt3__16vectorINS_14priority_queueI5OrderNS0_IS2_NS_9allocatorIS2_EEEE18BuyOrderComparatorEENS3_IS7_EEE17__annotate_shrinkB8ne180100Em, symObjAddr: 0x24D6C, symBinAddr: 0x100027B80, symSize: 0x258 }
  - { offset: 0x18D89, size: 0x8, addend: 0x0, symName: __ZNSt3__128__exception_guard_exceptionsINS_6vectorINS_14priority_queueI5OrderNS1_IS3_NS_9allocatorIS3_EEEE18BuyOrderComparatorEENS4_IS8_EEE16__destroy_vectorEED2B8ne180100Ev, symObjAddr: 0x24FC4, symBinAddr: 0x100027DD8, symSize: 0x17C }
  - { offset: 0x18DB3, size: 0x8, addend: 0x0, symName: __ZNSt3__16vectorINS_14priority_queueI5OrderNS0_IS2_NS_9allocatorIS2_EEEE18BuyOrderComparatorEENS3_IS7_EEE16__destroy_vectorclB8ne180100Ev, symObjAddr: 0x25140, symBinAddr: 0x100027F54, symSize: 0x43C }
  - { offset: 0x18DD9, size: 0x8, addend: 0x0, symName: __ZNSt3__16vectorINS_14priority_queueI5OrderNS0_IS2_NS_9allocatorIS2_EEEE18BuyOrderComparatorEENS3_IS7_EEE7__clearB8ne180100Ev, symObjAddr: 0x2557C, symBinAddr: 0x100028390, symSize: 0xB0 }
  - { offset: 0x18DFF, size: 0x8, addend: 0x0, symName: __ZNKSt3__16vectorINS_14priority_queueI5OrderNS0_IS2_NS_9allocatorIS2_EEEE18BuyOrderComparatorEENS3_IS7_EEE17__annotate_deleteB8ne180100Ev, symObjAddr: 0x2562C, symBinAddr: 0x100028440, symSize: 0x268 }
  - { offset: 0x18E25, size: 0x8, addend: 0x0, symName: __ZNSt3__116allocator_traitsINS_9allocatorINS_14priority_queueI5OrderNS_6vectorIS3_NS1_IS3_EEEE18BuyOrderComparatorEEEEE10deallocateB8ne180100ERS9_PS8_m, symObjAddr: 0x25894, symBinAddr: 0x1000286A8, symSize: 0x34 }
  - { offset: 0x18E67, size: 0x8, addend: 0x0, symName: __ZNSt3__16vectorINS_14priority_queueI5OrderNS0_IS2_NS_9allocatorIS2_EEEE18BuyOrderComparatorEENS3_IS7_EEE22__base_destruct_at_endB8ne180100EPS7_, symObjAddr: 0x258C8, symBinAddr: 0x1000286DC, symSize: 0x1FC }
  - { offset: 0x18EAB, size: 0x8, addend: 0x0, symName: __ZNSt3__116allocator_traitsINS_9allocatorINS_14priority_queueI5OrderNS_6vectorIS3_NS1_IS3_EEEE18BuyOrderComparatorEEEEE7destroyB8ne180100IS8_vEEvRS9_PT_, symObjAddr: 0x25AC4, symBinAddr: 0x1000288D8, symSize: 0x2C }
  - { offset: 0x18EE8, size: 0x8, addend: 0x0, symName: __ZNSt3__19allocatorINS_14priority_queueI5OrderNS_6vectorIS2_NS0_IS2_EEEE18BuyOrderComparatorEEE7destroyB8ne180100EPS7_, symObjAddr: 0x25AF0, symBinAddr: 0x100028904, symSize: 0x9C }
  - { offset: 0x18F1C, size: 0x8, addend: 0x0, symName: __ZNSt3__114priority_queueI5OrderNS_6vectorIS1_NS_9allocatorIS1_EEEE18BuyOrderComparatorED1Ev, symObjAddr: 0x25B8C, symBinAddr: 0x1000289A0, symSize: 0x78 }
  - { offset: 0x18F49, size: 0x8, addend: 0x0, symName: __ZNSt3__114priority_queueI5OrderNS_6vectorIS1_NS_9allocatorIS1_EEEE18BuyOrderComparatorED2Ev, symObjAddr: 0x25C04, symBinAddr: 0x100028A18, symSize: 0x78 }
  - { offset: 0x18F76, size: 0x8, addend: 0x0, symName: __ZNSt3__16vectorI5OrderNS_9allocatorIS1_EEED1B8ne180100Ev, symObjAddr: 0x25C7C, symBinAddr: 0x100028A90, symSize: 0x78 }
  - { offset: 0x18FA0, size: 0x8, addend: 0x0, symName: __ZNSt3__16vectorI5OrderNS_9allocatorIS1_EEED2B8ne180100Ev, symObjAddr: 0x25CF4, symBinAddr: 0x100028B08, symSize: 0x2D0 }
  - { offset: 0x18FCB, size: 0x8, addend: 0x0, symName: __ZNSt3__16vectorI5OrderNS_9allocatorIS1_EEE16__destroy_vectorC1B8ne180100ERS4_, symObjAddr: 0x25FC4, symBinAddr: 0x100028DD8, symSize: 0x80 }
  - { offset: 0x19004, size: 0x8, addend: 0x0, symName: __ZNSt3__16vectorI5OrderNS_9allocatorIS1_EEE16__destroy_vectorclB8ne180100Ev, symObjAddr: 0x26044, symBinAddr: 0x100028E58, symSize: 0x43C }
  - { offset: 0x1902A, size: 0x8, addend: 0x0, symName: __ZNSt3__16vectorI5OrderNS_9allocatorIS1_EEE16__destroy_vectorC2B8ne180100ERS4_, symObjAddr: 0x26480, symBinAddr: 0x100029294, symSize: 0x108 }
  - { offset: 0x19063, size: 0x8, addend: 0x0, symName: __ZNSt3__16vectorI5OrderNS_9allocatorIS1_EEE7__clearB8ne180100Ev, symObjAddr: 0x26588, symBinAddr: 0x10002939C, symSize: 0xB0 }
  - { offset: 0x19089, size: 0x8, addend: 0x0, symName: __ZNKSt3__16vectorI5OrderNS_9allocatorIS1_EEE17__annotate_deleteB8ne180100Ev, symObjAddr: 0x26638, symBinAddr: 0x10002944C, symSize: 0x278 }
  - { offset: 0x190AF, size: 0x8, addend: 0x0, symName: __ZNSt3__116allocator_traitsINS_9allocatorI5OrderEEE10deallocateB8ne180100ERS3_PS2_m, symObjAddr: 0x268B0, symBinAddr: 0x1000296C4, symSize: 0x34 }
  - { offset: 0x190F1, size: 0x8, addend: 0x0, symName: __ZNSt3__16vectorI5OrderNS_9allocatorIS1_EEE7__allocB8ne180100Ev, symObjAddr: 0x268E4, symBinAddr: 0x1000296F8, symSize: 0xE4 }
  - { offset: 0x19117, size: 0x8, addend: 0x0, symName: __ZNKSt3__16vectorI5OrderNS_9allocatorIS1_EEE8capacityB8ne180100Ev, symObjAddr: 0x269C8, symBinAddr: 0x1000297DC, symSize: 0x144 }
  - { offset: 0x1913D, size: 0x8, addend: 0x0, symName: __ZNSt3__16vectorI5OrderNS_9allocatorIS1_EEE22__base_destruct_at_endB8ne180100EPS1_, symObjAddr: 0x26B0C, symBinAddr: 0x100029920, symSize: 0x1FC }
  - { offset: 0x19181, size: 0x8, addend: 0x0, symName: __ZNSt3__116allocator_traitsINS_9allocatorI5OrderEEE7destroyB8ne180100IS2_vEEvRS3_PT_, symObjAddr: 0x26D08, symBinAddr: 0x100029B1C, symSize: 0x2C }
  - { offset: 0x191BE, size: 0x8, addend: 0x0, symName: __ZNSt3__19allocatorI5OrderE7destroyB8ne180100EPS1_, symObjAddr: 0x26D48, symBinAddr: 0x100029B5C, symSize: 0x4C }
  - { offset: 0x191F2, size: 0x8, addend: 0x0, symName: __ZNKSt3__16vectorI5OrderNS_9allocatorIS1_EEE31__annotate_contiguous_containerB8ne180100EPKvS6_, symObjAddr: 0x26D94, symBinAddr: 0x100029BA8, symSize: 0x1A8 }
  - { offset: 0x19254, size: 0x8, addend: 0x0, symName: __ZNKSt3__16vectorI5OrderNS_9allocatorIS1_EEE4dataB8ne180100Ev, symObjAddr: 0x26F3C, symBinAddr: 0x100029D50, symSize: 0xB0 }
  - { offset: 0x1927A, size: 0x8, addend: 0x0, symName: __ZNKSt3__16vectorI5OrderNS_9allocatorIS1_EEE4sizeB8ne180100Ev, symObjAddr: 0x26FEC, symBinAddr: 0x100029E00, symSize: 0xF8 }
  - { offset: 0x192A0, size: 0x8, addend: 0x0, symName: __ZNSt3__19allocatorI5OrderE10deallocateB8ne180100EPS1_m, symObjAddr: 0x270E4, symBinAddr: 0x100029EF8, symSize: 0x7C }
  - { offset: 0x192E2, size: 0x8, addend: 0x0, symName: __ZNSt3__117__compressed_pairIP5OrderNS_9allocatorIS1_EEE6secondB8ne180100Ev, symObjAddr: 0x27160, symBinAddr: 0x100029F74, symSize: 0x108 }
  - { offset: 0x19308, size: 0x8, addend: 0x0, symName: __ZNSt3__122__compressed_pair_elemINS_9allocatorI5OrderEELi1ELb1EE5__getB8ne180100Ev, symObjAddr: 0x27268, symBinAddr: 0x10002A07C, symSize: 0x74 }
  - { offset: 0x1932E, size: 0x8, addend: 0x0, symName: __ZNKSt3__16vectorI5OrderNS_9allocatorIS1_EEE9__end_capB8ne180100Ev, symObjAddr: 0x272DC, symBinAddr: 0x10002A0F0, symSize: 0x100 }
  - { offset: 0x19354, size: 0x8, addend: 0x0, symName: __ZNKSt3__117__compressed_pairIP5OrderNS_9allocatorIS1_EEE5firstB8ne180100Ev, symObjAddr: 0x273DC, symBinAddr: 0x10002A1F0, symSize: 0x124 }
  - { offset: 0x1937A, size: 0x8, addend: 0x0, symName: __ZNKSt3__122__compressed_pair_elemIP5OrderLi0ELb0EE5__getB8ne180100Ev, symObjAddr: 0x27500, symBinAddr: 0x10002A314, symSize: 0xAC }
  - { offset: 0x193A0, size: 0x8, addend: 0x0, symName: __ZNSt3__19allocatorINS_14priority_queueI5OrderNS_6vectorIS2_NS0_IS2_EEEE18BuyOrderComparatorEEE10deallocateB8ne180100EPS7_m, symObjAddr: 0x275AC, symBinAddr: 0x10002A3C0, symSize: 0x78 }
  - { offset: 0x193E2, size: 0x8, addend: 0x0, symName: __ZNSt3__16vectorINS_14priority_queueI5OrderNS0_IS2_NS_9allocatorIS2_EEEE19SellOrderComparatorEENS3_IS7_EEEC2Em, symObjAddr: 0x27624, symBinAddr: 0x10002A438, symSize: 0x550 }
  - { offset: 0x19438, size: 0x8, addend: 0x0, symName: __ZNSt3__117__compressed_pairIPNS_14priority_queueI5OrderNS_6vectorIS2_NS_9allocatorIS2_EEEE19SellOrderComparatorEENS4_IS8_EEEC1B8ne180100IDnNS_18__default_init_tagEEEOT_OT0_, symObjAddr: 0x27B74, symBinAddr: 0x10002A988, symSize: 0x88 }
  - { offset: 0x19490, size: 0x8, addend: 0x0, symName: __ZNSt3__16vectorINS_14priority_queueI5OrderNS0_IS2_NS_9allocatorIS2_EEEE19SellOrderComparatorEENS3_IS7_EEE16__destroy_vectorC1B8ne180100ERS9_, symObjAddr: 0x27EA8, symBinAddr: 0x10002ACBC, symSize: 0x80 }
  - { offset: 0x194C9, size: 0x8, addend: 0x0, symName: __ZNSt3__16vectorINS_14priority_queueI5OrderNS0_IS2_NS_9allocatorIS2_EEEE19SellOrderComparatorEENS3_IS7_EEE11__vallocateB8ne180100Em, symObjAddr: 0x27F28, symBinAddr: 0x10002AD3C, symSize: 0x5E0 }
  - { offset: 0x19513, size: 0x8, addend: 0x0, symName: __ZNSt3__16vectorINS_14priority_queueI5OrderNS0_IS2_NS_9allocatorIS2_EEEE19SellOrderComparatorEENS3_IS7_EEE18__construct_at_endEm, symObjAddr: 0x28508, symBinAddr: 0x10002B31C, symSize: 0x5C8 }
  - { offset: 0x1958D, size: 0x8, addend: 0x0, symName: __ZNSt3__128__exception_guard_exceptionsINS_6vectorINS_14priority_queueI5OrderNS1_IS3_NS_9allocatorIS3_EEEE19SellOrderComparatorEENS4_IS8_EEE16__destroy_vectorEE10__completeB8ne180100Ev, symObjAddr: 0x28AD0, symBinAddr: 0x10002B8E4, symSize: 0xD8 }
  - { offset: 0x195B3, size: 0x8, addend: 0x0, symName: __ZNSt3__128__exception_guard_exceptionsINS_6vectorINS_14priority_queueI5OrderNS1_IS3_NS_9allocatorIS3_EEEE19SellOrderComparatorEENS4_IS8_EEE16__destroy_vectorEED1B8ne180100Ev, symObjAddr: 0x28BA8, symBinAddr: 0x10002B9BC, symSize: 0x78 }
  - { offset: 0x195DD, size: 0x8, addend: 0x0, symName: __ZNSt3__117__compressed_pairIPNS_14priority_queueI5OrderNS_6vectorIS2_NS_9allocatorIS2_EEEE19SellOrderComparatorEENS4_IS8_EEEC2B8ne180100IDnNS_18__default_init_tagEEEOT_OT0_, symObjAddr: 0x28C20, symBinAddr: 0x10002BA34, symSize: 0x140 }
  - { offset: 0x19635, size: 0x8, addend: 0x0, symName: __ZNSt3__122__compressed_pair_elemIPNS_14priority_queueI5OrderNS_6vectorIS2_NS_9allocatorIS2_EEEE19SellOrderComparatorEELi0ELb0EEC2B8ne180100IDnvEEOT_, symObjAddr: 0x28D60, symBinAddr: 0x10002BB74, symSize: 0xBC }
  - { offset: 0x19677, size: 0x8, addend: 0x0, symName: __ZNSt3__122__compressed_pair_elemINS_9allocatorINS_14priority_queueI5OrderNS_6vectorIS3_NS1_IS3_EEEE19SellOrderComparatorEEEELi1ELb1EEC2B8ne180100ENS_18__default_init_tagE, symObjAddr: 0x28E1C, symBinAddr: 0x10002BC30, symSize: 0x84 }
  - { offset: 0x196AC, size: 0x8, addend: 0x0, symName: __ZNSt3__19allocatorINS_14priority_queueI5OrderNS_6vectorIS2_NS0_IS2_EEEE19SellOrderComparatorEEEC2B8ne180100Ev, symObjAddr: 0x28EA0, symBinAddr: 0x10002BCB4, symSize: 0x84 }
  - { offset: 0x196D6, size: 0x8, addend: 0x0, symName: __ZNSt3__116__non_trivial_ifILb1ENS_9allocatorINS_14priority_queueI5OrderNS_6vectorIS3_NS1_IS3_EEEE19SellOrderComparatorEEEEEC2B8ne180100Ev, symObjAddr: 0x28F24, symBinAddr: 0x10002BD38, symSize: 0x54 }
  - { offset: 0x19700, size: 0x8, addend: 0x0, symName: __ZNSt3__128__exception_guard_exceptionsINS_6vectorINS_14priority_queueI5OrderNS1_IS3_NS_9allocatorIS3_EEEE19SellOrderComparatorEENS4_IS8_EEE16__destroy_vectorEEC1B8ne180100ESB_, symObjAddr: 0x28F78, symBinAddr: 0x10002BD8C, symSize: 0x284 }
  - { offset: 0x1973D, size: 0x8, addend: 0x0, symName: __ZNSt3__128__exception_guard_exceptionsINS_6vectorINS_14priority_queueI5OrderNS1_IS3_NS_9allocatorIS3_EEEE19SellOrderComparatorEENS4_IS8_EEE16__destroy_vectorEEC2B8ne180100ESB_, symObjAddr: 0x291FC, symBinAddr: 0x10002C010, symSize: 0x2B4 }
  - { offset: 0x1977A, size: 0x8, addend: 0x0, symName: __ZNSt3__16vectorINS_14priority_queueI5OrderNS0_IS2_NS_9allocatorIS2_EEEE19SellOrderComparatorEENS3_IS7_EEE16__destroy_vectorC2B8ne180100ERS9_, symObjAddr: 0x294B0, symBinAddr: 0x10002C2C4, symSize: 0x108 }
  - { offset: 0x197B3, size: 0x8, addend: 0x0, symName: __ZNKSt3__16vectorINS_14priority_queueI5OrderNS0_IS2_NS_9allocatorIS2_EEEE19SellOrderComparatorEENS3_IS7_EEE8max_sizeEv, symObjAddr: 0x295B8, symBinAddr: 0x10002C3CC, symSize: 0x3F4 }
  - { offset: 0x197DC, size: 0x8, addend: 0x0, symName: __ZNKSt3__16vectorINS_14priority_queueI5OrderNS0_IS2_NS_9allocatorIS2_EEEE19SellOrderComparatorEENS3_IS7_EEE20__throw_length_errorB8ne180100Ev, symObjAddr: 0x299AC, symBinAddr: 0x10002C7C0, symSize: 0x80 }
  - { offset: 0x19802, size: 0x8, addend: 0x0, symName: __ZNSt3__16vectorINS_14priority_queueI5OrderNS0_IS2_NS_9allocatorIS2_EEEE19SellOrderComparatorEENS3_IS7_EEE7__allocB8ne180100Ev, symObjAddr: 0x29CB0, symBinAddr: 0x10002CAC4, symSize: 0xE4 }
  - { offset: 0x19828, size: 0x8, addend: 0x0, symName: __ZNSt3__16vectorINS_14priority_queueI5OrderNS0_IS2_NS_9allocatorIS2_EEEE19SellOrderComparatorEENS3_IS7_EEE9__end_capB8ne180100Ev, symObjAddr: 0x29D94, symBinAddr: 0x10002CBA8, symSize: 0x100 }
  - { offset: 0x1984E, size: 0x8, addend: 0x0, symName: __ZNKSt3__16vectorINS_14priority_queueI5OrderNS0_IS2_NS_9allocatorIS2_EEEE19SellOrderComparatorEENS3_IS7_EEE14__annotate_newB8ne180100Em, symObjAddr: 0x29E94, symBinAddr: 0x10002CCA8, symSize: 0x258 }
  - { offset: 0x1988D, size: 0x8, addend: 0x0, symName: __ZNSt3__116allocator_traitsINS_9allocatorINS_14priority_queueI5OrderNS_6vectorIS3_NS1_IS3_EEEE19SellOrderComparatorEEEEE8max_sizeB8ne180100IS9_vEEmRKS9_, symObjAddr: 0x2A0EC, symBinAddr: 0x10002CF00, symSize: 0x24 }
  - { offset: 0x198BB, size: 0x8, addend: 0x0, symName: __ZNKSt3__16vectorINS_14priority_queueI5OrderNS0_IS2_NS_9allocatorIS2_EEEE19SellOrderComparatorEENS3_IS7_EEE7__allocB8ne180100Ev, symObjAddr: 0x2A110, symBinAddr: 0x10002CF24, symSize: 0xE4 }
  - { offset: 0x198E1, size: 0x8, addend: 0x0, symName: __ZNKSt3__19allocatorINS_14priority_queueI5OrderNS_6vectorIS2_NS0_IS2_EEEE19SellOrderComparatorEEE8max_sizeB8ne180100Ev, symObjAddr: 0x2A1F4, symBinAddr: 0x10002D008, symSize: 0x4C }
  - { offset: 0x19907, size: 0x8, addend: 0x0, symName: __ZNKSt3__117__compressed_pairIPNS_14priority_queueI5OrderNS_6vectorIS2_NS_9allocatorIS2_EEEE19SellOrderComparatorEENS4_IS8_EEE6secondB8ne180100Ev, symObjAddr: 0x2A240, symBinAddr: 0x10002D054, symSize: 0x108 }
  - { offset: 0x1992D, size: 0x8, addend: 0x0, symName: __ZNKSt3__122__compressed_pair_elemINS_9allocatorINS_14priority_queueI5OrderNS_6vectorIS3_NS1_IS3_EEEE19SellOrderComparatorEEEELi1ELb1EE5__getB8ne180100Ev, symObjAddr: 0x2A348, symBinAddr: 0x10002D15C, symSize: 0x74 }
  - { offset: 0x19953, size: 0x8, addend: 0x0, symName: __ZNSt3__19allocatorINS_14priority_queueI5OrderNS_6vectorIS2_NS0_IS2_EEEE19SellOrderComparatorEEE8allocateB8ne180100Em, symObjAddr: 0x2A3BC, symBinAddr: 0x10002D1D0, symSize: 0xCC }
  - { offset: 0x19987, size: 0x8, addend: 0x0, symName: __ZNSt3__117__compressed_pairIPNS_14priority_queueI5OrderNS_6vectorIS2_NS_9allocatorIS2_EEEE19SellOrderComparatorEENS4_IS8_EEE6secondB8ne180100Ev, symObjAddr: 0x2A488, symBinAddr: 0x10002D29C, symSize: 0x108 }
  - { offset: 0x199AD, size: 0x8, addend: 0x0, symName: __ZNSt3__122__compressed_pair_elemINS_9allocatorINS_14priority_queueI5OrderNS_6vectorIS3_NS1_IS3_EEEE19SellOrderComparatorEEEELi1ELb1EE5__getB8ne180100Ev, symObjAddr: 0x2A590, symBinAddr: 0x10002D3A4, symSize: 0x74 }
  - { offset: 0x199D3, size: 0x8, addend: 0x0, symName: __ZNSt3__117__compressed_pairIPNS_14priority_queueI5OrderNS_6vectorIS2_NS_9allocatorIS2_EEEE19SellOrderComparatorEENS4_IS8_EEE5firstB8ne180100Ev, symObjAddr: 0x2A604, symBinAddr: 0x10002D418, symSize: 0x124 }
  - { offset: 0x199F9, size: 0x8, addend: 0x0, symName: __ZNSt3__122__compressed_pair_elemIPNS_14priority_queueI5OrderNS_6vectorIS2_NS_9allocatorIS2_EEEE19SellOrderComparatorEELi0ELb0EE5__getB8ne180100Ev, symObjAddr: 0x2A728, symBinAddr: 0x10002D53C, symSize: 0xAC }
  - { offset: 0x19A1F, size: 0x8, addend: 0x0, symName: __ZNKSt3__16vectorINS_14priority_queueI5OrderNS0_IS2_NS_9allocatorIS2_EEEE19SellOrderComparatorEENS3_IS7_EEE31__annotate_contiguous_containerB8ne180100EPKvSB_, symObjAddr: 0x2A7D4, symBinAddr: 0x10002D5E8, symSize: 0x1A0 }
  - { offset: 0x19A81, size: 0x8, addend: 0x0, symName: __ZNKSt3__16vectorINS_14priority_queueI5OrderNS0_IS2_NS_9allocatorIS2_EEEE19SellOrderComparatorEENS3_IS7_EEE4dataB8ne180100Ev, symObjAddr: 0x2A974, symBinAddr: 0x10002D788, symSize: 0xB0 }
  - { offset: 0x19AA7, size: 0x8, addend: 0x0, symName: __ZNKSt3__16vectorINS_14priority_queueI5OrderNS0_IS2_NS_9allocatorIS2_EEEE19SellOrderComparatorEENS3_IS7_EEE8capacityB8ne180100Ev, symObjAddr: 0x2AA24, symBinAddr: 0x10002D838, symSize: 0x144 }
  - { offset: 0x19ACD, size: 0x8, addend: 0x0, symName: __ZNKSt3__16vectorINS_14priority_queueI5OrderNS0_IS2_NS_9allocatorIS2_EEEE19SellOrderComparatorEENS3_IS7_EEE9__end_capB8ne180100Ev, symObjAddr: 0x2AB7C, symBinAddr: 0x10002D990, symSize: 0x100 }
  - { offset: 0x19AF3, size: 0x8, addend: 0x0, symName: __ZNKSt3__117__compressed_pairIPNS_14priority_queueI5OrderNS_6vectorIS2_NS_9allocatorIS2_EEEE19SellOrderComparatorEENS4_IS8_EEE5firstB8ne180100Ev, symObjAddr: 0x2AC7C, symBinAddr: 0x10002DA90, symSize: 0x124 }
  - { offset: 0x19B19, size: 0x8, addend: 0x0, symName: __ZNKSt3__122__compressed_pair_elemIPNS_14priority_queueI5OrderNS_6vectorIS2_NS_9allocatorIS2_EEEE19SellOrderComparatorEELi0ELb0EE5__getB8ne180100Ev, symObjAddr: 0x2ADA0, symBinAddr: 0x10002DBB4, symSize: 0xAC }
  - { offset: 0x19B58, size: 0x8, addend: 0x0, symName: __ZNSt3__16vectorINS_14priority_queueI5OrderNS0_IS2_NS_9allocatorIS2_EEEE19SellOrderComparatorEENS3_IS7_EEE21_ConstructTransactionC1B8ne180100ERS9_m, symObjAddr: 0x2AE4C, symBinAddr: 0x10002DC60, symSize: 0x88 }
  - { offset: 0x19BA0, size: 0x8, addend: 0x0, symName: __ZNSt3__116allocator_traitsINS_9allocatorINS_14priority_queueI5OrderNS_6vectorIS3_NS1_IS3_EEEE19SellOrderComparatorEEEEE9constructB8ne180100IS8_JEvEEvRS9_PT_DpOT0_, symObjAddr: 0x2AED4, symBinAddr: 0x10002DCE8, symSize: 0x2C }
  - { offset: 0x19BE2, size: 0x8, addend: 0x0, symName: __ZNSt3__16vectorINS_14priority_queueI5OrderNS0_IS2_NS_9allocatorIS2_EEEE19SellOrderComparatorEENS3_IS7_EEE21_ConstructTransactionD1B8ne180100Ev, symObjAddr: 0x2AF00, symBinAddr: 0x10002DD14, symSize: 0x78 }
  - { offset: 0x19C0C, size: 0x8, addend: 0x0, symName: __ZNSt3__16vectorINS_14priority_queueI5OrderNS0_IS2_NS_9allocatorIS2_EEEE19SellOrderComparatorEENS3_IS7_EEE21_ConstructTransactionC2B8ne180100ERS9_m, symObjAddr: 0x2AF78, symBinAddr: 0x10002DD8C, symSize: 0x3D8 }
  - { offset: 0x19C54, size: 0x8, addend: 0x0, symName: __ZNKSt3__16vectorINS_14priority_queueI5OrderNS0_IS2_NS_9allocatorIS2_EEEE19SellOrderComparatorEENS3_IS7_EEE19__annotate_increaseB8ne180100Em, symObjAddr: 0x2B350, symBinAddr: 0x10002E164, symSize: 0x344 }
  - { offset: 0x19C89, size: 0x8, addend: 0x0, symName: __ZNKSt3__16vectorINS_14priority_queueI5OrderNS0_IS2_NS_9allocatorIS2_EEEE19SellOrderComparatorEENS3_IS7_EEE4sizeB8ne180100Ev, symObjAddr: 0x2B694, symBinAddr: 0x10002E4A8, symSize: 0xF8 }
  - { offset: 0x19CAF, size: 0x8, addend: 0x0, symName: __ZNSt3__19allocatorINS_14priority_queueI5OrderNS_6vectorIS2_NS0_IS2_EEEE19SellOrderComparatorEEE9constructB8ne180100IS7_JEEEvPT_DpOT0_, symObjAddr: 0x2B78C, symBinAddr: 0x10002E5A0, symSize: 0x9C }
  - { offset: 0x19CF1, size: 0x8, addend: 0x0, symName: __ZNSt3__114priority_queueI5OrderNS_6vectorIS1_NS_9allocatorIS1_EEEE19SellOrderComparatorEC1B8ne180100Ev, symObjAddr: 0x2B828, symBinAddr: 0x10002E63C, symSize: 0x78 }
  - { offset: 0x19D1B, size: 0x8, addend: 0x0, symName: __ZNSt3__114priority_queueI5OrderNS_6vectorIS1_NS_9allocatorIS1_EEEE19SellOrderComparatorEC2B8ne180100Ev, symObjAddr: 0x2B8A0, symBinAddr: 0x10002E6B4, symSize: 0x78 }
  - { offset: 0x19D45, size: 0x8, addend: 0x0, symName: __ZNSt3__16vectorINS_14priority_queueI5OrderNS0_IS2_NS_9allocatorIS2_EEEE19SellOrderComparatorEENS3_IS7_EEE21_ConstructTransactionD2B8ne180100Ev, symObjAddr: 0x2B918, symBinAddr: 0x10002E72C, symSize: 0x390 }
  - { offset: 0x19D6F, size: 0x8, addend: 0x0, symName: __ZNKSt3__16vectorINS_14priority_queueI5OrderNS0_IS2_NS_9allocatorIS2_EEEE19SellOrderComparatorEENS3_IS7_EEE17__annotate_shrinkB8ne180100Em, symObjAddr: 0x2BCA8, symBinAddr: 0x10002EABC, symSize: 0x258 }
  - { offset: 0x19DA4, size: 0x8, addend: 0x0, symName: __ZNSt3__128__exception_guard_exceptionsINS_6vectorINS_14priority_queueI5OrderNS1_IS3_NS_9allocatorIS3_EEEE19SellOrderComparatorEENS4_IS8_EEE16__destroy_vectorEED2B8ne180100Ev, symObjAddr: 0x2BF00, symBinAddr: 0x10002ED14, symSize: 0x17C }
  - { offset: 0x19DCE, size: 0x8, addend: 0x0, symName: __ZNSt3__16vectorINS_14priority_queueI5OrderNS0_IS2_NS_9allocatorIS2_EEEE19SellOrderComparatorEENS3_IS7_EEE16__destroy_vectorclB8ne180100Ev, symObjAddr: 0x2C07C, symBinAddr: 0x10002EE90, symSize: 0x43C }
  - { offset: 0x19DF4, size: 0x8, addend: 0x0, symName: __ZNSt3__16vectorINS_14priority_queueI5OrderNS0_IS2_NS_9allocatorIS2_EEEE19SellOrderComparatorEENS3_IS7_EEE7__clearB8ne180100Ev, symObjAddr: 0x2C4B8, symBinAddr: 0x10002F2CC, symSize: 0xB0 }
  - { offset: 0x19E1A, size: 0x8, addend: 0x0, symName: __ZNKSt3__16vectorINS_14priority_queueI5OrderNS0_IS2_NS_9allocatorIS2_EEEE19SellOrderComparatorEENS3_IS7_EEE17__annotate_deleteB8ne180100Ev, symObjAddr: 0x2C568, symBinAddr: 0x10002F37C, symSize: 0x268 }
  - { offset: 0x19E40, size: 0x8, addend: 0x0, symName: __ZNSt3__116allocator_traitsINS_9allocatorINS_14priority_queueI5OrderNS_6vectorIS3_NS1_IS3_EEEE19SellOrderComparatorEEEEE10deallocateB8ne180100ERS9_PS8_m, symObjAddr: 0x2C7D0, symBinAddr: 0x10002F5E4, symSize: 0x34 }
  - { offset: 0x19E82, size: 0x8, addend: 0x0, symName: __ZNSt3__16vectorINS_14priority_queueI5OrderNS0_IS2_NS_9allocatorIS2_EEEE19SellOrderComparatorEENS3_IS7_EEE22__base_destruct_at_endB8ne180100EPS7_, symObjAddr: 0x2C804, symBinAddr: 0x10002F618, symSize: 0x1FC }
  - { offset: 0x19EC6, size: 0x8, addend: 0x0, symName: __ZNSt3__116allocator_traitsINS_9allocatorINS_14priority_queueI5OrderNS_6vectorIS3_NS1_IS3_EEEE19SellOrderComparatorEEEEE7destroyB8ne180100IS8_vEEvRS9_PT_, symObjAddr: 0x2CA00, symBinAddr: 0x10002F814, symSize: 0x2C }
  - { offset: 0x19F03, size: 0x8, addend: 0x0, symName: __ZNSt3__19allocatorINS_14priority_queueI5OrderNS_6vectorIS2_NS0_IS2_EEEE19SellOrderComparatorEEE7destroyB8ne180100EPS7_, symObjAddr: 0x2CA2C, symBinAddr: 0x10002F840, symSize: 0x9C }
  - { offset: 0x19F37, size: 0x8, addend: 0x0, symName: __ZNSt3__114priority_queueI5OrderNS_6vectorIS1_NS_9allocatorIS1_EEEE19SellOrderComparatorED1Ev, symObjAddr: 0x2CAC8, symBinAddr: 0x10002F8DC, symSize: 0x78 }
  - { offset: 0x19F64, size: 0x8, addend: 0x0, symName: __ZNSt3__114priority_queueI5OrderNS_6vectorIS1_NS_9allocatorIS1_EEEE19SellOrderComparatorED2Ev, symObjAddr: 0x2CB40, symBinAddr: 0x10002F954, symSize: 0x78 }
  - { offset: 0x19F91, size: 0x8, addend: 0x0, symName: __ZNSt3__19allocatorINS_14priority_queueI5OrderNS_6vectorIS2_NS0_IS2_EEEE19SellOrderComparatorEEE10deallocateB8ne180100EPS7_m, symObjAddr: 0x2CBB8, symBinAddr: 0x10002F9CC, symSize: 0x78 }
  - { offset: 0x19FD3, size: 0x8, addend: 0x0, symName: __ZNSt3__16vectorI13time_travelerNS_9allocatorIS1_EEEC2B8ne180100Ev, symObjAddr: 0x2CC30, symBinAddr: 0x10002FA44, symSize: 0x37C }
  - { offset: 0x19FFE, size: 0x8, addend: 0x0, symName: __ZNSt3__117__compressed_pairIP13time_travelerNS_9allocatorIS1_EEEC1B8ne180100IDnNS_18__default_init_tagEEEOT_OT0_, symObjAddr: 0x2CFAC, symBinAddr: 0x10002FDC0, symSize: 0x88 }
  - { offset: 0x1A056, size: 0x8, addend: 0x0, symName: __ZNSt3__117__compressed_pairIP13time_travelerNS_9allocatorIS1_EEEC2B8ne180100IDnNS_18__default_init_tagEEEOT_OT0_, symObjAddr: 0x2D034, symBinAddr: 0x10002FE48, symSize: 0x140 }
  - { offset: 0x1A0AE, size: 0x8, addend: 0x0, symName: __ZNSt3__122__compressed_pair_elemIP13time_travelerLi0ELb0EEC2B8ne180100IDnvEEOT_, symObjAddr: 0x2D174, symBinAddr: 0x10002FF88, symSize: 0xBC }
  - { offset: 0x1A0F0, size: 0x8, addend: 0x0, symName: __ZNSt3__122__compressed_pair_elemINS_9allocatorI13time_travelerEELi1ELb1EEC2B8ne180100ENS_18__default_init_tagE, symObjAddr: 0x2D230, symBinAddr: 0x100030044, symSize: 0x84 }
  - { offset: 0x1A125, size: 0x8, addend: 0x0, symName: __ZNSt3__19allocatorI13time_travelerEC2B8ne180100Ev, symObjAddr: 0x2D2B4, symBinAddr: 0x1000300C8, symSize: 0x84 }
  - { offset: 0x1A14F, size: 0x8, addend: 0x0, symName: __ZNSt3__116__non_trivial_ifILb1ENS_9allocatorI13time_travelerEEEC2B8ne180100Ev, symObjAddr: 0x2D338, symBinAddr: 0x10003014C, symSize: 0x54 }
  - { offset: 0x1A179, size: 0x8, addend: 0x0, symName: __ZNSt3__16vectorI19MedianPriorityQueueNS_9allocatorIS1_EEEC2B8ne180100Ev, symObjAddr: 0x2D38C, symBinAddr: 0x1000301A0, symSize: 0x37C }
  - { offset: 0x1A1A4, size: 0x8, addend: 0x0, symName: __ZNSt3__117__compressed_pairIP19MedianPriorityQueueNS_9allocatorIS1_EEEC1B8ne180100IDnNS_18__default_init_tagEEEOT_OT0_, symObjAddr: 0x2D708, symBinAddr: 0x10003051C, symSize: 0x88 }
  - { offset: 0x1A1FC, size: 0x8, addend: 0x0, symName: __ZNSt3__117__compressed_pairIP19MedianPriorityQueueNS_9allocatorIS1_EEEC2B8ne180100IDnNS_18__default_init_tagEEEOT_OT0_, symObjAddr: 0x2D790, symBinAddr: 0x1000305A4, symSize: 0x140 }
  - { offset: 0x1A254, size: 0x8, addend: 0x0, symName: __ZNSt3__122__compressed_pair_elemIP19MedianPriorityQueueLi0ELb0EEC2B8ne180100IDnvEEOT_, symObjAddr: 0x2D8D0, symBinAddr: 0x1000306E4, symSize: 0xBC }
  - { offset: 0x1A296, size: 0x8, addend: 0x0, symName: __ZNSt3__122__compressed_pair_elemINS_9allocatorI19MedianPriorityQueueEELi1ELb1EEC2B8ne180100ENS_18__default_init_tagE, symObjAddr: 0x2D98C, symBinAddr: 0x1000307A0, symSize: 0x84 }
  - { offset: 0x1A2CB, size: 0x8, addend: 0x0, symName: __ZNSt3__19allocatorI19MedianPriorityQueueEC2B8ne180100Ev, symObjAddr: 0x2DA10, symBinAddr: 0x100030824, symSize: 0x84 }
  - { offset: 0x1A2F5, size: 0x8, addend: 0x0, symName: __ZNSt3__116__non_trivial_ifILb1ENS_9allocatorI19MedianPriorityQueueEEEC2B8ne180100Ev, symObjAddr: 0x2DA94, symBinAddr: 0x1000308A8, symSize: 0x54 }
  - { offset: 0x1A31F, size: 0x8, addend: 0x0, symName: __ZNSt3__16vectorI13time_travelerNS_9allocatorIS1_EEED2B8ne180100Ev, symObjAddr: 0x2DAE8, symBinAddr: 0x1000308FC, symSize: 0x2D0 }
  - { offset: 0x1A34A, size: 0x8, addend: 0x0, symName: __ZNSt3__16vectorI13time_travelerNS_9allocatorIS1_EEE16__destroy_vectorC1B8ne180100ERS4_, symObjAddr: 0x2DDB8, symBinAddr: 0x100030BCC, symSize: 0x80 }
  - { offset: 0x1A383, size: 0x8, addend: 0x0, symName: __ZNSt3__16vectorI13time_travelerNS_9allocatorIS1_EEE16__destroy_vectorclB8ne180100Ev, symObjAddr: 0x2DE38, symBinAddr: 0x100030C4C, symSize: 0x43C }
  - { offset: 0x1A3A9, size: 0x8, addend: 0x0, symName: __ZNSt3__16vectorI13time_travelerNS_9allocatorIS1_EEE16__destroy_vectorC2B8ne180100ERS4_, symObjAddr: 0x2E274, symBinAddr: 0x100031088, symSize: 0x108 }
  - { offset: 0x1A3E2, size: 0x8, addend: 0x0, symName: __ZNSt3__16vectorI13time_travelerNS_9allocatorIS1_EEE7__clearB8ne180100Ev, symObjAddr: 0x2E37C, symBinAddr: 0x100031190, symSize: 0xB0 }
  - { offset: 0x1A408, size: 0x8, addend: 0x0, symName: __ZNKSt3__16vectorI13time_travelerNS_9allocatorIS1_EEE17__annotate_deleteB8ne180100Ev, symObjAddr: 0x2E42C, symBinAddr: 0x100031240, symSize: 0x268 }
  - { offset: 0x1A42E, size: 0x8, addend: 0x0, symName: __ZNSt3__116allocator_traitsINS_9allocatorI13time_travelerEEE10deallocateB8ne180100ERS3_PS2_m, symObjAddr: 0x2E694, symBinAddr: 0x1000314A8, symSize: 0x34 }
  - { offset: 0x1A470, size: 0x8, addend: 0x0, symName: __ZNSt3__16vectorI13time_travelerNS_9allocatorIS1_EEE7__allocB8ne180100Ev, symObjAddr: 0x2E6C8, symBinAddr: 0x1000314DC, symSize: 0xE4 }
  - { offset: 0x1A496, size: 0x8, addend: 0x0, symName: __ZNKSt3__16vectorI13time_travelerNS_9allocatorIS1_EEE8capacityB8ne180100Ev, symObjAddr: 0x2E7AC, symBinAddr: 0x1000315C0, symSize: 0x144 }
  - { offset: 0x1A4BC, size: 0x8, addend: 0x0, symName: __ZNSt3__16vectorI13time_travelerNS_9allocatorIS1_EEE22__base_destruct_at_endB8ne180100EPS1_, symObjAddr: 0x2E8F0, symBinAddr: 0x100031704, symSize: 0x1FC }
  - { offset: 0x1A500, size: 0x8, addend: 0x0, symName: __ZNSt3__116allocator_traitsINS_9allocatorI13time_travelerEEE7destroyB8ne180100IS2_vEEvRS3_PT_, symObjAddr: 0x2EAEC, symBinAddr: 0x100031900, symSize: 0x2C }
  - { offset: 0x1A53D, size: 0x8, addend: 0x0, symName: __ZNSt3__19allocatorI13time_travelerE7destroyB8ne180100EPS1_, symObjAddr: 0x2EB2C, symBinAddr: 0x100031940, symSize: 0x4C }
  - { offset: 0x1A571, size: 0x8, addend: 0x0, symName: __ZNKSt3__16vectorI13time_travelerNS_9allocatorIS1_EEE31__annotate_contiguous_containerB8ne180100EPKvS6_, symObjAddr: 0x2EB78, symBinAddr: 0x10003198C, symSize: 0x1A0 }
  - { offset: 0x1A5D3, size: 0x8, addend: 0x0, symName: __ZNKSt3__16vectorI13time_travelerNS_9allocatorIS1_EEE4dataB8ne180100Ev, symObjAddr: 0x2ED18, symBinAddr: 0x100031B2C, symSize: 0xB0 }
  - { offset: 0x1A5F9, size: 0x8, addend: 0x0, symName: __ZNKSt3__16vectorI13time_travelerNS_9allocatorIS1_EEE4sizeB8ne180100Ev, symObjAddr: 0x2EDC8, symBinAddr: 0x100031BDC, symSize: 0xF8 }
  - { offset: 0x1A61F, size: 0x8, addend: 0x0, symName: __ZNSt3__19allocatorI13time_travelerE10deallocateB8ne180100EPS1_m, symObjAddr: 0x2EEC0, symBinAddr: 0x100031CD4, symSize: 0x78 }
  - { offset: 0x1A661, size: 0x8, addend: 0x0, symName: __ZNSt3__117__compressed_pairIP13time_travelerNS_9allocatorIS1_EEE6secondB8ne180100Ev, symObjAddr: 0x2EF38, symBinAddr: 0x100031D4C, symSize: 0x108 }
  - { offset: 0x1A687, size: 0x8, addend: 0x0, symName: __ZNSt3__122__compressed_pair_elemINS_9allocatorI13time_travelerEELi1ELb1EE5__getB8ne180100Ev, symObjAddr: 0x2F040, symBinAddr: 0x100031E54, symSize: 0x74 }
  - { offset: 0x1A6AD, size: 0x8, addend: 0x0, symName: __ZNKSt3__16vectorI13time_travelerNS_9allocatorIS1_EEE9__end_capB8ne180100Ev, symObjAddr: 0x2F0B4, symBinAddr: 0x100031EC8, symSize: 0x100 }
  - { offset: 0x1A6D3, size: 0x8, addend: 0x0, symName: __ZNKSt3__117__compressed_pairIP13time_travelerNS_9allocatorIS1_EEE5firstB8ne180100Ev, symObjAddr: 0x2F1B4, symBinAddr: 0x100031FC8, symSize: 0x124 }
  - { offset: 0x1A6F9, size: 0x8, addend: 0x0, symName: __ZNKSt3__122__compressed_pair_elemIP13time_travelerLi0ELb0EE5__getB8ne180100Ev, symObjAddr: 0x2F2D8, symBinAddr: 0x1000320EC, symSize: 0xAC }
  - { offset: 0x1A71F, size: 0x8, addend: 0x0, symName: __ZNSt3__16vectorI6TraderNS_9allocatorIS1_EEED2B8ne180100Ev, symObjAddr: 0x2F384, symBinAddr: 0x100032198, symSize: 0x2CC }
  - { offset: 0x1A74A, size: 0x8, addend: 0x0, symName: __ZNSt3__16vectorINS_14priority_queueI5OrderNS0_IS2_NS_9allocatorIS2_EEEE18BuyOrderComparatorEENS3_IS7_EEED2B8ne180100Ev, symObjAddr: 0x2F650, symBinAddr: 0x100032464, symSize: 0x2CC }
  - { offset: 0x1A775, size: 0x8, addend: 0x0, symName: __ZNSt3__16vectorINS_14priority_queueI5OrderNS0_IS2_NS_9allocatorIS2_EEEE19SellOrderComparatorEENS3_IS7_EEED2B8ne180100Ev, symObjAddr: 0x2F91C, symBinAddr: 0x100032730, symSize: 0x2CC }
  - { offset: 0x1A7A0, size: 0x8, addend: 0x0, symName: __ZNSt3__16vectorI19MedianPriorityQueueNS_9allocatorIS1_EEED2B8ne180100Ev, symObjAddr: 0x2FBE8, symBinAddr: 0x1000329FC, symSize: 0x2D0 }
  - { offset: 0x1A7CB, size: 0x8, addend: 0x0, symName: __ZNSt3__16vectorI19MedianPriorityQueueNS_9allocatorIS1_EEE16__destroy_vectorC1B8ne180100ERS4_, symObjAddr: 0x2FEB8, symBinAddr: 0x100032CCC, symSize: 0x80 }
  - { offset: 0x1A804, size: 0x8, addend: 0x0, symName: __ZNSt3__16vectorI19MedianPriorityQueueNS_9allocatorIS1_EEE16__destroy_vectorclB8ne180100Ev, symObjAddr: 0x2FF38, symBinAddr: 0x100032D4C, symSize: 0x43C }
  - { offset: 0x1A82A, size: 0x8, addend: 0x0, symName: __ZNSt3__16vectorI19MedianPriorityQueueNS_9allocatorIS1_EEE16__destroy_vectorC2B8ne180100ERS4_, symObjAddr: 0x30374, symBinAddr: 0x100033188, symSize: 0x108 }
  - { offset: 0x1A863, size: 0x8, addend: 0x0, symName: __ZNSt3__16vectorI19MedianPriorityQueueNS_9allocatorIS1_EEE7__clearB8ne180100Ev, symObjAddr: 0x3047C, symBinAddr: 0x100033290, symSize: 0xB0 }
  - { offset: 0x1A889, size: 0x8, addend: 0x0, symName: __ZNKSt3__16vectorI19MedianPriorityQueueNS_9allocatorIS1_EEE17__annotate_deleteB8ne180100Ev, symObjAddr: 0x3052C, symBinAddr: 0x100033340, symSize: 0x268 }
  - { offset: 0x1A8AF, size: 0x8, addend: 0x0, symName: __ZNSt3__116allocator_traitsINS_9allocatorI19MedianPriorityQueueEEE10deallocateB8ne180100ERS3_PS2_m, symObjAddr: 0x30794, symBinAddr: 0x1000335A8, symSize: 0x34 }
  - { offset: 0x1A8F1, size: 0x8, addend: 0x0, symName: __ZNSt3__16vectorI19MedianPriorityQueueNS_9allocatorIS1_EEE7__allocB8ne180100Ev, symObjAddr: 0x307C8, symBinAddr: 0x1000335DC, symSize: 0xE4 }
  - { offset: 0x1A917, size: 0x8, addend: 0x0, symName: __ZNKSt3__16vectorI19MedianPriorityQueueNS_9allocatorIS1_EEE8capacityB8ne180100Ev, symObjAddr: 0x308AC, symBinAddr: 0x1000336C0, symSize: 0x144 }
  - { offset: 0x1A93D, size: 0x8, addend: 0x0, symName: __ZNSt3__16vectorI19MedianPriorityQueueNS_9allocatorIS1_EEE22__base_destruct_at_endB8ne180100EPS1_, symObjAddr: 0x309F0, symBinAddr: 0x100033804, symSize: 0x1FC }
  - { offset: 0x1A981, size: 0x8, addend: 0x0, symName: __ZNSt3__116allocator_traitsINS_9allocatorI19MedianPriorityQueueEEE7destroyB8ne180100IS2_vEEvRS3_PT_, symObjAddr: 0x30BEC, symBinAddr: 0x100033A00, symSize: 0x2C }
  - { offset: 0x1A9BE, size: 0x8, addend: 0x0, symName: __ZNSt3__19allocatorI19MedianPriorityQueueE7destroyB8ne180100EPS1_, symObjAddr: 0x30C2C, symBinAddr: 0x100033A40, symSize: 0x9C }
  - { offset: 0x1A9F2, size: 0x8, addend: 0x0, symName: __ZN19MedianPriorityQueueD1Ev, symObjAddr: 0x30CC8, symBinAddr: 0x100033ADC, symSize: 0x78 }
  - { offset: 0x1AA1E, size: 0x8, addend: 0x0, symName: __ZN19MedianPriorityQueueD2Ev, symObjAddr: 0x30D40, symBinAddr: 0x100033B54, symSize: 0x84 }
  - { offset: 0x1AA4A, size: 0x8, addend: 0x0, symName: __ZNSt3__114priority_queueIjNS_6vectorIjNS_9allocatorIjEEEENS_7greaterIjEEED1Ev, symObjAddr: 0x30DC4, symBinAddr: 0x100033BD8, symSize: 0x78 }
  - { offset: 0x1AA77, size: 0x8, addend: 0x0, symName: __ZNSt3__114priority_queueIjNS_6vectorIjNS_9allocatorIjEEEENS_4lessIjEEED1Ev, symObjAddr: 0x30E3C, symBinAddr: 0x100033C50, symSize: 0x78 }
  - { offset: 0x1AAA4, size: 0x8, addend: 0x0, symName: __ZNSt3__114priority_queueIjNS_6vectorIjNS_9allocatorIjEEEENS_7greaterIjEEED2Ev, symObjAddr: 0x30EB4, symBinAddr: 0x100033CC8, symSize: 0x78 }
  - { offset: 0x1AAD1, size: 0x8, addend: 0x0, symName: __ZNSt3__16vectorIjNS_9allocatorIjEEED1B8ne180100Ev, symObjAddr: 0x30F2C, symBinAddr: 0x100033D40, symSize: 0x78 }
  - { offset: 0x1AAFB, size: 0x8, addend: 0x0, symName: __ZNSt3__16vectorIjNS_9allocatorIjEEED2B8ne180100Ev, symObjAddr: 0x30FA4, symBinAddr: 0x100033DB8, symSize: 0x2D0 }
  - { offset: 0x1AB26, size: 0x8, addend: 0x0, symName: __ZNSt3__16vectorIjNS_9allocatorIjEEE16__destroy_vectorC1B8ne180100ERS3_, symObjAddr: 0x31274, symBinAddr: 0x100034088, symSize: 0x80 }
  - { offset: 0x1AB5F, size: 0x8, addend: 0x0, symName: __ZNSt3__16vectorIjNS_9allocatorIjEEE16__destroy_vectorclB8ne180100Ev, symObjAddr: 0x312F4, symBinAddr: 0x100034108, symSize: 0x43C }
  - { offset: 0x1AB85, size: 0x8, addend: 0x0, symName: __ZNSt3__16vectorIjNS_9allocatorIjEEE16__destroy_vectorC2B8ne180100ERS3_, symObjAddr: 0x31730, symBinAddr: 0x100034544, symSize: 0x108 }
  - { offset: 0x1ABBE, size: 0x8, addend: 0x0, symName: __ZNSt3__16vectorIjNS_9allocatorIjEEE7__clearB8ne180100Ev, symObjAddr: 0x31838, symBinAddr: 0x10003464C, symSize: 0xB0 }
  - { offset: 0x1ABE4, size: 0x8, addend: 0x0, symName: __ZNKSt3__16vectorIjNS_9allocatorIjEEE17__annotate_deleteB8ne180100Ev, symObjAddr: 0x318E8, symBinAddr: 0x1000346FC, symSize: 0x268 }
  - { offset: 0x1AC0A, size: 0x8, addend: 0x0, symName: __ZNSt3__116allocator_traitsINS_9allocatorIjEEE10deallocateB8ne180100ERS2_Pjm, symObjAddr: 0x31B50, symBinAddr: 0x100034964, symSize: 0x34 }
  - { offset: 0x1AC4C, size: 0x8, addend: 0x0, symName: __ZNSt3__16vectorIjNS_9allocatorIjEEE7__allocB8ne180100Ev, symObjAddr: 0x31B84, symBinAddr: 0x100034998, symSize: 0xE4 }
  - { offset: 0x1AC72, size: 0x8, addend: 0x0, symName: __ZNKSt3__16vectorIjNS_9allocatorIjEEE8capacityB8ne180100Ev, symObjAddr: 0x31C68, symBinAddr: 0x100034A7C, symSize: 0x144 }
  - { offset: 0x1AC98, size: 0x8, addend: 0x0, symName: __ZNSt3__16vectorIjNS_9allocatorIjEEE22__base_destruct_at_endB8ne180100EPj, symObjAddr: 0x31DAC, symBinAddr: 0x100034BC0, symSize: 0x1FC }
  - { offset: 0x1ACDC, size: 0x8, addend: 0x0, symName: __ZNSt3__116allocator_traitsINS_9allocatorIjEEE7destroyB8ne180100IjvEEvRS2_PT_, symObjAddr: 0x31FA8, symBinAddr: 0x100034DBC, symSize: 0x2C }
  - { offset: 0x1AD19, size: 0x8, addend: 0x0, symName: __ZNSt3__19allocatorIjE7destroyB8ne180100EPj, symObjAddr: 0x31FE8, symBinAddr: 0x100034DFC, symSize: 0x4C }
  - { offset: 0x1AD4D, size: 0x8, addend: 0x0, symName: __ZNKSt3__16vectorIjNS_9allocatorIjEEE31__annotate_contiguous_containerB8ne180100EPKvS5_, symObjAddr: 0x32034, symBinAddr: 0x100034E48, symSize: 0x1A0 }
  - { offset: 0x1ADAF, size: 0x8, addend: 0x0, symName: __ZNKSt3__16vectorIjNS_9allocatorIjEEE4dataB8ne180100Ev, symObjAddr: 0x321D4, symBinAddr: 0x100034FE8, symSize: 0xB0 }
  - { offset: 0x1ADD5, size: 0x8, addend: 0x0, symName: __ZNKSt3__16vectorIjNS_9allocatorIjEEE4sizeB8ne180100Ev, symObjAddr: 0x32284, symBinAddr: 0x100035098, symSize: 0xF8 }
  - { offset: 0x1ADFB, size: 0x8, addend: 0x0, symName: __ZNSt3__19allocatorIjE10deallocateB8ne180100EPjm, symObjAddr: 0x3237C, symBinAddr: 0x100035190, symSize: 0x78 }
  - { offset: 0x1AE3D, size: 0x8, addend: 0x0, symName: __ZNSt3__117__compressed_pairIPjNS_9allocatorIjEEE6secondB8ne180100Ev, symObjAddr: 0x323F4, symBinAddr: 0x100035208, symSize: 0x108 }
  - { offset: 0x1AE63, size: 0x8, addend: 0x0, symName: __ZNSt3__122__compressed_pair_elemINS_9allocatorIjEELi1ELb1EE5__getB8ne180100Ev, symObjAddr: 0x324FC, symBinAddr: 0x100035310, symSize: 0x74 }
  - { offset: 0x1AE89, size: 0x8, addend: 0x0, symName: __ZNKSt3__16vectorIjNS_9allocatorIjEEE9__end_capB8ne180100Ev, symObjAddr: 0x32570, symBinAddr: 0x100035384, symSize: 0x100 }
  - { offset: 0x1AEAF, size: 0x8, addend: 0x0, symName: __ZNKSt3__117__compressed_pairIPjNS_9allocatorIjEEE5firstB8ne180100Ev, symObjAddr: 0x32670, symBinAddr: 0x100035484, symSize: 0x124 }
  - { offset: 0x1AED5, size: 0x8, addend: 0x0, symName: __ZNKSt3__122__compressed_pair_elemIPjLi0ELb0EE5__getB8ne180100Ev, symObjAddr: 0x32794, symBinAddr: 0x1000355A8, symSize: 0xAC }
  - { offset: 0x1AEFB, size: 0x8, addend: 0x0, symName: __ZNSt3__114priority_queueIjNS_6vectorIjNS_9allocatorIjEEEENS_4lessIjEEED2Ev, symObjAddr: 0x32840, symBinAddr: 0x100035654, symSize: 0x78 }
  - { offset: 0x1AF28, size: 0x8, addend: 0x0, symName: __ZNKSt3__16vectorI19MedianPriorityQueueNS_9allocatorIS1_EEE31__annotate_contiguous_containerB8ne180100EPKvS6_, symObjAddr: 0x328B8, symBinAddr: 0x1000356CC, symSize: 0x1A0 }
  - { offset: 0x1AF8A, size: 0x8, addend: 0x0, symName: __ZNKSt3__16vectorI19MedianPriorityQueueNS_9allocatorIS1_EEE4dataB8ne180100Ev, symObjAddr: 0x32A58, symBinAddr: 0x10003586C, symSize: 0xB0 }
  - { offset: 0x1AFB0, size: 0x8, addend: 0x0, symName: __ZNKSt3__16vectorI19MedianPriorityQueueNS_9allocatorIS1_EEE4sizeB8ne180100Ev, symObjAddr: 0x32B08, symBinAddr: 0x10003591C, symSize: 0xF8 }
  - { offset: 0x1AFD6, size: 0x8, addend: 0x0, symName: __ZNSt3__19allocatorI19MedianPriorityQueueE10deallocateB8ne180100EPS1_m, symObjAddr: 0x32C00, symBinAddr: 0x100035A14, symSize: 0x78 }
  - { offset: 0x1B018, size: 0x8, addend: 0x0, symName: __ZNSt3__117__compressed_pairIP19MedianPriorityQueueNS_9allocatorIS1_EEE6secondB8ne180100Ev, symObjAddr: 0x32C78, symBinAddr: 0x100035A8C, symSize: 0x108 }
  - { offset: 0x1B03E, size: 0x8, addend: 0x0, symName: __ZNSt3__122__compressed_pair_elemINS_9allocatorI19MedianPriorityQueueEELi1ELb1EE5__getB8ne180100Ev, symObjAddr: 0x32D80, symBinAddr: 0x100035B94, symSize: 0x74 }
  - { offset: 0x1B064, size: 0x8, addend: 0x0, symName: __ZNKSt3__16vectorI19MedianPriorityQueueNS_9allocatorIS1_EEE9__end_capB8ne180100Ev, symObjAddr: 0x32DF4, symBinAddr: 0x100035C08, symSize: 0x100 }
  - { offset: 0x1B08A, size: 0x8, addend: 0x0, symName: __ZNKSt3__117__compressed_pairIP19MedianPriorityQueueNS_9allocatorIS1_EEE5firstB8ne180100Ev, symObjAddr: 0x32EF4, symBinAddr: 0x100035D08, symSize: 0x124 }
  - { offset: 0x1B0B0, size: 0x8, addend: 0x0, symName: __ZNKSt3__122__compressed_pair_elemIP19MedianPriorityQueueLi0ELb0EE5__getB8ne180100Ev, symObjAddr: 0x33018, symBinAddr: 0x100035E2C, symSize: 0xAC }
  - { offset: 0x1B0D6, size: 0x8, addend: 0x0, symName: __ZNSt3__16vectorI13time_travelerNS_9allocatorIS1_EEE8__appendEm, symObjAddr: 0x330C4, symBinAddr: 0x100035ED8, symSize: 0x4F8 }
  - { offset: 0x1B138, size: 0x8, addend: 0x0, symName: __ZNSt3__16vectorI13time_travelerNS_9allocatorIS1_EEE17__destruct_at_endB8ne180100EPS1_, symObjAddr: 0x335BC, symBinAddr: 0x1000363D0, symSize: 0x90 }
  - { offset: 0x1B17C, size: 0x8, addend: 0x0, symName: __ZNSt3__16vectorI13time_travelerNS_9allocatorIS1_EEE9__end_capB8ne180100Ev, symObjAddr: 0x3364C, symBinAddr: 0x100036460, symSize: 0x100 }
  - { offset: 0x1B1A2, size: 0x8, addend: 0x0, symName: __ZNSt3__16vectorI13time_travelerNS_9allocatorIS1_EEE18__construct_at_endEm, symObjAddr: 0x3374C, symBinAddr: 0x100036560, symSize: 0x5C8 }
  - { offset: 0x1B21C, size: 0x8, addend: 0x0, symName: __ZNKSt3__16vectorI13time_travelerNS_9allocatorIS1_EEE11__recommendB8ne180100Em, symObjAddr: 0x33D14, symBinAddr: 0x100036B28, symSize: 0x44C }
  - { offset: 0x1B278, size: 0x8, addend: 0x0, symName: __ZNSt3__114__split_bufferI13time_travelerRNS_9allocatorIS1_EEEC1EmmS4_, symObjAddr: 0x34160, symBinAddr: 0x100036F74, symSize: 0x90 }
  - { offset: 0x1B2CE, size: 0x8, addend: 0x0, symName: __ZNSt3__114__split_bufferI13time_travelerRNS_9allocatorIS1_EEE18__construct_at_endEm, symObjAddr: 0x341F0, symBinAddr: 0x100037004, symSize: 0x578 }
  - { offset: 0x1B317, size: 0x8, addend: 0x0, symName: __ZNSt3__114__split_bufferI13time_travelerRNS_9allocatorIS1_EEED1Ev, symObjAddr: 0x34FBC, symBinAddr: 0x100037DD0, symSize: 0x78 }
  - { offset: 0x1B343, size: 0x8, addend: 0x0, symName: __ZNSt3__117__compressed_pairIP13time_travelerNS_9allocatorIS1_EEE5firstB8ne180100Ev, symObjAddr: 0x35034, symBinAddr: 0x100037E48, symSize: 0x124 }
  - { offset: 0x1B369, size: 0x8, addend: 0x0, symName: __ZNSt3__122__compressed_pair_elemIP13time_travelerLi0ELb0EE5__getB8ne180100Ev, symObjAddr: 0x35158, symBinAddr: 0x100037F6C, symSize: 0xAC }
  - { offset: 0x1B3A8, size: 0x8, addend: 0x0, symName: __ZNSt3__16vectorI13time_travelerNS_9allocatorIS1_EEE21_ConstructTransactionC1B8ne180100ERS4_m, symObjAddr: 0x35204, symBinAddr: 0x100038018, symSize: 0x88 }
  - { offset: 0x1B3F0, size: 0x8, addend: 0x0, symName: __ZNSt3__116allocator_traitsINS_9allocatorI13time_travelerEEE9constructB8ne180100IS2_JEvEEvRS3_PT_DpOT0_, symObjAddr: 0x3528C, symBinAddr: 0x1000380A0, symSize: 0x2C }
  - { offset: 0x1B432, size: 0x8, addend: 0x0, symName: __ZNSt3__16vectorI13time_travelerNS_9allocatorIS1_EEE21_ConstructTransactionD1B8ne180100Ev, symObjAddr: 0x352B8, symBinAddr: 0x1000380CC, symSize: 0x78 }
  - { offset: 0x1B45C, size: 0x8, addend: 0x0, symName: __ZNSt3__16vectorI13time_travelerNS_9allocatorIS1_EEE21_ConstructTransactionC2B8ne180100ERS4_m, symObjAddr: 0x35330, symBinAddr: 0x100038144, symSize: 0x3D8 }
  - { offset: 0x1B4A4, size: 0x8, addend: 0x0, symName: __ZNKSt3__16vectorI13time_travelerNS_9allocatorIS1_EEE19__annotate_increaseB8ne180100Em, symObjAddr: 0x35708, symBinAddr: 0x10003851C, symSize: 0x344 }
  - { offset: 0x1B4D9, size: 0x8, addend: 0x0, symName: __ZNSt3__19allocatorI13time_travelerE9constructB8ne180100IS1_JEEEvPT_DpOT0_, symObjAddr: 0x35A4C, symBinAddr: 0x100038860, symSize: 0xAC }
  - { offset: 0x1B520, size: 0x8, addend: 0x0, symName: __ZN13time_travelerC1Ev, symObjAddr: 0x35AF8, symBinAddr: 0x10003890C, symSize: 0x78 }
  - { offset: 0x1B54C, size: 0x8, addend: 0x0, symName: __ZN13time_travelerC2Ev, symObjAddr: 0x35B70, symBinAddr: 0x100038984, symSize: 0x26C }
  - { offset: 0x1B578, size: 0x8, addend: 0x0, symName: __ZNSt3__16vectorI13time_travelerNS_9allocatorIS1_EEE21_ConstructTransactionD2B8ne180100Ev, symObjAddr: 0x35DDC, symBinAddr: 0x100038BF0, symSize: 0x390 }
  - { offset: 0x1B5A2, size: 0x8, addend: 0x0, symName: __ZNKSt3__16vectorI13time_travelerNS_9allocatorIS1_EEE17__annotate_shrinkB8ne180100Em, symObjAddr: 0x3616C, symBinAddr: 0x100038F80, symSize: 0x258 }
  - { offset: 0x1B5D7, size: 0x8, addend: 0x0, symName: __ZNKSt3__16vectorI13time_travelerNS_9allocatorIS1_EEE8max_sizeEv, symObjAddr: 0x363C4, symBinAddr: 0x1000391D8, symSize: 0x3F4 }
  - { offset: 0x1B600, size: 0x8, addend: 0x0, symName: __ZNKSt3__16vectorI13time_travelerNS_9allocatorIS1_EEE20__throw_length_errorB8ne180100Ev, symObjAddr: 0x367B8, symBinAddr: 0x1000395CC, symSize: 0x80 }
  - { offset: 0x1B630, size: 0x8, addend: 0x0, symName: __ZNSt3__116allocator_traitsINS_9allocatorI13time_travelerEEE8max_sizeB8ne180100IS3_vEEmRKS3_, symObjAddr: 0x3693C, symBinAddr: 0x100039750, symSize: 0x24 }
  - { offset: 0x1B65E, size: 0x8, addend: 0x0, symName: __ZNKSt3__16vectorI13time_travelerNS_9allocatorIS1_EEE7__allocB8ne180100Ev, symObjAddr: 0x36960, symBinAddr: 0x100039774, symSize: 0xE4 }
  - { offset: 0x1B684, size: 0x8, addend: 0x0, symName: __ZNKSt3__19allocatorI13time_travelerE8max_sizeB8ne180100Ev, symObjAddr: 0x36A44, symBinAddr: 0x100039858, symSize: 0x4C }
  - { offset: 0x1B6AA, size: 0x8, addend: 0x0, symName: __ZNKSt3__117__compressed_pairIP13time_travelerNS_9allocatorIS1_EEE6secondB8ne180100Ev, symObjAddr: 0x36A90, symBinAddr: 0x1000398A4, symSize: 0x108 }
  - { offset: 0x1B6D0, size: 0x8, addend: 0x0, symName: __ZNKSt3__122__compressed_pair_elemINS_9allocatorI13time_travelerEELi1ELb1EE5__getB8ne180100Ev, symObjAddr: 0x36B98, symBinAddr: 0x1000399AC, symSize: 0x74 }
  - { offset: 0x1B6F6, size: 0x8, addend: 0x0, symName: __ZNSt3__114__split_bufferI13time_travelerRNS_9allocatorIS1_EEEC2EmmS4_, symObjAddr: 0x36EC4, symBinAddr: 0x100039CD8, symSize: 0x7C8 }
  - { offset: 0x1B771, size: 0x8, addend: 0x0, symName: __ZNSt3__117__compressed_pairIP13time_travelerRNS_9allocatorIS1_EEEC1B8ne180100IDnS5_EEOT_OT0_, symObjAddr: 0x3768C, symBinAddr: 0x10003A4A0, symSize: 0x88 }
  - { offset: 0x1B7C9, size: 0x8, addend: 0x0, symName: __ZNSt3__114__split_bufferI13time_travelerRNS_9allocatorIS1_EEE7__allocB8ne180100Ev, symObjAddr: 0x37998, symBinAddr: 0x10003A7AC, symSize: 0xE4 }
  - { offset: 0x1B7EF, size: 0x8, addend: 0x0, symName: __ZNSt3__114__split_bufferI13time_travelerRNS_9allocatorIS1_EEE9__end_capB8ne180100Ev, symObjAddr: 0x37A7C, symBinAddr: 0x10003A890, symSize: 0x100 }
  - { offset: 0x1B815, size: 0x8, addend: 0x0, symName: __ZNSt3__117__compressed_pairIP13time_travelerRNS_9allocatorIS1_EEEC2B8ne180100IDnS5_EEOT_OT0_, symObjAddr: 0x37B7C, symBinAddr: 0x10003A990, symSize: 0x198 }
  - { offset: 0x1B86D, size: 0x8, addend: 0x0, symName: __ZNSt3__122__compressed_pair_elemIRNS_9allocatorI13time_travelerEELi1ELb0EEC2B8ne180100IS4_vEEOT_, symObjAddr: 0x37D14, symBinAddr: 0x10003AB28, symSize: 0xEC }
  - { offset: 0x1B8AF, size: 0x8, addend: 0x0, symName: __ZNSt3__19allocatorI13time_travelerE8allocateB8ne180100Em, symObjAddr: 0x37E00, symBinAddr: 0x10003AC14, symSize: 0xCC }
  - { offset: 0x1B8E3, size: 0x8, addend: 0x0, symName: __ZNSt3__117__compressed_pairIP13time_travelerRNS_9allocatorIS1_EEE6secondB8ne180100Ev, symObjAddr: 0x37ECC, symBinAddr: 0x10003ACE0, symSize: 0x110 }
  - { offset: 0x1B909, size: 0x8, addend: 0x0, symName: __ZNSt3__122__compressed_pair_elemIRNS_9allocatorI13time_travelerEELi1ELb0EE5__getB8ne180100Ev, symObjAddr: 0x37FDC, symBinAddr: 0x10003ADF0, symSize: 0xD8 }
  - { offset: 0x1B92F, size: 0x8, addend: 0x0, symName: __ZNSt3__117__compressed_pairIP13time_travelerRNS_9allocatorIS1_EEE5firstB8ne180100Ev, symObjAddr: 0x380B4, symBinAddr: 0x10003AEC8, symSize: 0x124 }
  - { offset: 0x1B95F, size: 0x8, addend: 0x0, symName: __ZNSt3__114__split_bufferI13time_travelerRNS_9allocatorIS1_EEE21_ConstructTransactionC1B8ne180100EPPS1_m, symObjAddr: 0x381D8, symBinAddr: 0x10003AFEC, symSize: 0x88 }
  - { offset: 0x1B9A5, size: 0x8, addend: 0x0, symName: __ZNSt3__114__split_bufferI13time_travelerRNS_9allocatorIS1_EEE21_ConstructTransactionD1B8ne180100Ev, symObjAddr: 0x38260, symBinAddr: 0x10003B074, symSize: 0x78 }
  - { offset: 0x1B9CF, size: 0x8, addend: 0x0, symName: __ZNSt3__114__split_bufferI13time_travelerRNS_9allocatorIS1_EEE21_ConstructTransactionC2B8ne180100EPPS1_m, symObjAddr: 0x382D8, symBinAddr: 0x10003B0EC, symSize: 0x324 }
  - { offset: 0x1BA15, size: 0x8, addend: 0x0, symName: __ZNSt3__114__split_bufferI13time_travelerRNS_9allocatorIS1_EEE21_ConstructTransactionD2B8ne180100Ev, symObjAddr: 0x385FC, symBinAddr: 0x10003B410, symSize: 0x174 }
  - { offset: 0x1BA3F, size: 0x8, addend: 0x0, symName: __ZNSt3__116reverse_iteratorIP13time_travelerEC1B8ne180100ES2_, symObjAddr: 0x38C10, symBinAddr: 0x10003BA24, symSize: 0x80 }
  - { offset: 0x1BA77, size: 0x8, addend: 0x0, symName: __ZNKSt3__116reverse_iteratorIP13time_travelerE4baseB8ne180100Ev, symObjAddr: 0x38C90, symBinAddr: 0x10003BAA4, symSize: 0xB0 }
  - { offset: 0x1BA9D, size: 0x8, addend: 0x0, symName: __ZNKSt3__16vectorI13time_travelerNS_9allocatorIS1_EEE14__annotate_newB8ne180100Em, symObjAddr: 0x38F00, symBinAddr: 0x10003BD14, symSize: 0x258 }
  - { offset: 0x1BAF6, size: 0x8, addend: 0x0, symName: __ZNKSt3__111__move_loopINS_17_ClassicAlgPolicyEEclB8ne180100INS_16reverse_iteratorIP13time_travelerEES7_S7_EENS_4pairIT_T1_EES9_T0_SA_, symObjAddr: 0x3AB00, symBinAddr: 0x10003D914, symSize: 0x360 }
  - { offset: 0x1BB74, size: 0x8, addend: 0x0, symName: __ZNSt3__18_IterOpsINS_17_ClassicAlgPolicyEE11__iter_moveB8ne180100IRNS_16reverse_iteratorIP13time_travelerEELi0EEEDTclsr3stdE4movedeclsr3stdE7declvalIRT_EEEEOS9_, symObjAddr: 0x3BAE4, symBinAddr: 0x10003E8F8, symSize: 0xB8 }
  - { offset: 0x1BBA6, size: 0x8, addend: 0x0, symName: __ZNKSt3__116reverse_iteratorIP13time_travelerEdeB8ne180100Ev, symObjAddr: 0x3BB9C, symBinAddr: 0x10003E9B0, symSize: 0x184 }
  - { offset: 0x1BBDA, size: 0x8, addend: 0x0, symName: __ZNSt3__116reverse_iteratorIP13time_travelerEppB8ne180100Ev, symObjAddr: 0x3BD20, symBinAddr: 0x10003EB34, symSize: 0x1B0 }
  - { offset: 0x1BC00, size: 0x8, addend: 0x0, symName: __ZNSt3__18_IterOpsINS_17_ClassicAlgPolicyEE25__validate_iter_referenceB8ne180100IRNS_16reverse_iteratorIP13time_travelerEEEEvv, symObjAddr: 0x3BED0, symBinAddr: 0x10003ECE4, symSize: 0x4 }
  - { offset: 0x1BC1E, size: 0x8, addend: 0x0, symName: __ZNSt3__118__unwrap_iter_implINS_16reverse_iteratorIP13time_travelerEELb0EE8__unwrapB8ne180100ES4_, symObjAddr: 0x3BED4, symBinAddr: 0x10003ECE8, symSize: 0x264 }
  - { offset: 0x1BC4B, size: 0x8, addend: 0x0, symName: __ZNSt3__14pairINS_16reverse_iteratorIP13time_travelerEES4_EC1B8ne180100IS4_S4_Li0EEEOT_OT0_, symObjAddr: 0x3C138, symBinAddr: 0x10003EF4C, symSize: 0x88 }
  - { offset: 0x1BCA9, size: 0x8, addend: 0x0, symName: __ZNSt3__14pairINS_16reverse_iteratorIP13time_travelerEES4_EC2B8ne180100IS4_S4_Li0EEEOT_OT0_, symObjAddr: 0x3C1C0, symBinAddr: 0x10003EFD4, symSize: 0xA0 }
  - { offset: 0x1BD07, size: 0x8, addend: 0x0, symName: __ZNSt3__118__unwrap_iter_implINS_16reverse_iteratorIP13time_travelerEELb0EE8__rewrapB8ne180100ES4_S4_, symObjAddr: 0x3C260, symBinAddr: 0x10003F074, symSize: 0x2D0 }
  - { offset: 0x1BD3D, size: 0x8, addend: 0x0, symName: __ZNSt3__116reverse_iteratorIP13time_travelerEC2B8ne180100ES2_, symObjAddr: 0x3C530, symBinAddr: 0x10003F344, symSize: 0x10C }
  - { offset: 0x1BD75, size: 0x8, addend: 0x0, symName: __ZNSt3__114__split_bufferI13time_travelerRNS_9allocatorIS1_EEED2Ev, symObjAddr: 0x3C63C, symBinAddr: 0x10003F450, symSize: 0x16C }
  - { offset: 0x1BDA1, size: 0x8, addend: 0x0, symName: __ZNSt3__114__split_bufferI13time_travelerRNS_9allocatorIS1_EEE5clearB8ne180100Ev, symObjAddr: 0x3C7A8, symBinAddr: 0x10003F5BC, symSize: 0xB4 }
  - { offset: 0x1BDC7, size: 0x8, addend: 0x0, symName: __ZNKSt3__114__split_bufferI13time_travelerRNS_9allocatorIS1_EEE8capacityB8ne180100Ev, symObjAddr: 0x3C85C, symBinAddr: 0x10003F670, symSize: 0x144 }
  - { offset: 0x1BDED, size: 0x8, addend: 0x0, symName: __ZNSt3__114__split_bufferI13time_travelerRNS_9allocatorIS1_EEE17__destruct_at_endB8ne180100EPS1_, symObjAddr: 0x3C9A0, symBinAddr: 0x10003F7B4, symSize: 0x74 }
  - { offset: 0x1BE21, size: 0x8, addend: 0x0, symName: __ZNSt3__114__split_bufferI13time_travelerRNS_9allocatorIS1_EEE17__destruct_at_endB8ne180100EPS1_NS_17integral_constantIbLb0EEE, symObjAddr: 0x3CA14, symBinAddr: 0x10003F828, symSize: 0x224 }
  - { offset: 0x1BE62, size: 0x8, addend: 0x0, symName: __ZNKSt3__114__split_bufferI13time_travelerRNS_9allocatorIS1_EEE9__end_capB8ne180100Ev, symObjAddr: 0x3CC38, symBinAddr: 0x10003FA4C, symSize: 0x100 }
  - { offset: 0x1BE88, size: 0x8, addend: 0x0, symName: __ZNKSt3__117__compressed_pairIP13time_travelerRNS_9allocatorIS1_EEE5firstB8ne180100Ev, symObjAddr: 0x3CD38, symBinAddr: 0x10003FB4C, symSize: 0x124 }
  - { offset: 0x1BEAE, size: 0x8, addend: 0x0, symName: __ZNSt3__16vectorI19MedianPriorityQueueNS_9allocatorIS1_EEE8__appendEm, symObjAddr: 0x3CE5C, symBinAddr: 0x10003FC70, symSize: 0x4F8 }
  - { offset: 0x1BF10, size: 0x8, addend: 0x0, symName: __ZNSt3__16vectorI19MedianPriorityQueueNS_9allocatorIS1_EEE17__destruct_at_endB8ne180100EPS1_, symObjAddr: 0x3D354, symBinAddr: 0x100040168, symSize: 0x90 }
  - { offset: 0x1BF54, size: 0x8, addend: 0x0, symName: __ZNSt3__16vectorI19MedianPriorityQueueNS_9allocatorIS1_EEE9__end_capB8ne180100Ev, symObjAddr: 0x3D3E4, symBinAddr: 0x1000401F8, symSize: 0x100 }
  - { offset: 0x1BF7A, size: 0x8, addend: 0x0, symName: __ZNSt3__16vectorI19MedianPriorityQueueNS_9allocatorIS1_EEE18__construct_at_endEm, symObjAddr: 0x3D4E4, symBinAddr: 0x1000402F8, symSize: 0x5C8 }
  - { offset: 0x1BFF4, size: 0x8, addend: 0x0, symName: __ZNKSt3__16vectorI19MedianPriorityQueueNS_9allocatorIS1_EEE11__recommendB8ne180100Em, symObjAddr: 0x3DAAC, symBinAddr: 0x1000408C0, symSize: 0x44C }
  - { offset: 0x1C050, size: 0x8, addend: 0x0, symName: __ZNSt3__114__split_bufferI19MedianPriorityQueueRNS_9allocatorIS1_EEEC1EmmS4_, symObjAddr: 0x3DEF8, symBinAddr: 0x100040D0C, symSize: 0x90 }
  - { offset: 0x1C0A6, size: 0x8, addend: 0x0, symName: __ZNSt3__114__split_bufferI19MedianPriorityQueueRNS_9allocatorIS1_EEE18__construct_at_endEm, symObjAddr: 0x3DF88, symBinAddr: 0x100040D9C, symSize: 0x578 }
  - { offset: 0x1C0EF, size: 0x8, addend: 0x0, symName: __ZNSt3__114__split_bufferI19MedianPriorityQueueRNS_9allocatorIS1_EEED1Ev, symObjAddr: 0x3ED54, symBinAddr: 0x100041B68, symSize: 0x78 }
  - { offset: 0x1C11B, size: 0x8, addend: 0x0, symName: __ZNSt3__117__compressed_pairIP19MedianPriorityQueueNS_9allocatorIS1_EEE5firstB8ne180100Ev, symObjAddr: 0x3EDCC, symBinAddr: 0x100041BE0, symSize: 0x124 }
  - { offset: 0x1C141, size: 0x8, addend: 0x0, symName: __ZNSt3__122__compressed_pair_elemIP19MedianPriorityQueueLi0ELb0EE5__getB8ne180100Ev, symObjAddr: 0x3EEF0, symBinAddr: 0x100041D04, symSize: 0xAC }
  - { offset: 0x1C180, size: 0x8, addend: 0x0, symName: __ZNSt3__16vectorI19MedianPriorityQueueNS_9allocatorIS1_EEE21_ConstructTransactionC1B8ne180100ERS4_m, symObjAddr: 0x3EF9C, symBinAddr: 0x100041DB0, symSize: 0x88 }
  - { offset: 0x1C1C8, size: 0x8, addend: 0x0, symName: __ZNSt3__116allocator_traitsINS_9allocatorI19MedianPriorityQueueEEE9constructB8ne180100IS2_JEvEEvRS3_PT_DpOT0_, symObjAddr: 0x3F024, symBinAddr: 0x100041E38, symSize: 0x2C }
  - { offset: 0x1C20A, size: 0x8, addend: 0x0, symName: __ZNSt3__16vectorI19MedianPriorityQueueNS_9allocatorIS1_EEE21_ConstructTransactionD1B8ne180100Ev, symObjAddr: 0x3F050, symBinAddr: 0x100041E64, symSize: 0x78 }
  - { offset: 0x1C234, size: 0x8, addend: 0x0, symName: __ZNSt3__16vectorI19MedianPriorityQueueNS_9allocatorIS1_EEE21_ConstructTransactionC2B8ne180100ERS4_m, symObjAddr: 0x3F0C8, symBinAddr: 0x100041EDC, symSize: 0x3D8 }
  - { offset: 0x1C27C, size: 0x8, addend: 0x0, symName: __ZNKSt3__16vectorI19MedianPriorityQueueNS_9allocatorIS1_EEE19__annotate_increaseB8ne180100Em, symObjAddr: 0x3F4A0, symBinAddr: 0x1000422B4, symSize: 0x344 }
  - { offset: 0x1C2B1, size: 0x8, addend: 0x0, symName: __ZNSt3__19allocatorI19MedianPriorityQueueE9constructB8ne180100IS1_JEEEvPT_DpOT0_, symObjAddr: 0x3F7E4, symBinAddr: 0x1000425F8, symSize: 0xAC }
  - { offset: 0x1C2F3, size: 0x8, addend: 0x0, symName: __ZN19MedianPriorityQueueC1Ev, symObjAddr: 0x3F890, symBinAddr: 0x1000426A4, symSize: 0x78 }
  - { offset: 0x1C31F, size: 0x8, addend: 0x0, symName: __ZN19MedianPriorityQueueC2Ev, symObjAddr: 0x3F908, symBinAddr: 0x10004271C, symSize: 0x84 }
  - { offset: 0x1C34B, size: 0x8, addend: 0x0, symName: __ZNSt3__114priority_queueIjNS_6vectorIjNS_9allocatorIjEEEENS_4lessIjEEEC1B8ne180100Ev, symObjAddr: 0x3F98C, symBinAddr: 0x1000427A0, symSize: 0x78 }
  - { offset: 0x1C375, size: 0x8, addend: 0x0, symName: __ZNSt3__114priority_queueIjNS_6vectorIjNS_9allocatorIjEEEENS_7greaterIjEEEC1B8ne180100Ev, symObjAddr: 0x3FA04, symBinAddr: 0x100042818, symSize: 0x78 }
  - { offset: 0x1C39F, size: 0x8, addend: 0x0, symName: __ZNSt3__114priority_queueIjNS_6vectorIjNS_9allocatorIjEEEENS_4lessIjEEEC2B8ne180100Ev, symObjAddr: 0x3FA7C, symBinAddr: 0x100042890, symSize: 0x78 }
  - { offset: 0x1C3C9, size: 0x8, addend: 0x0, symName: __ZNSt3__16vectorIjNS_9allocatorIjEEEC1B8ne180100Ev, symObjAddr: 0x3FAF4, symBinAddr: 0x100042908, symSize: 0x78 }
  - { offset: 0x1C3F3, size: 0x8, addend: 0x0, symName: __ZNSt3__16vectorIjNS_9allocatorIjEEEC2B8ne180100Ev, symObjAddr: 0x3FB6C, symBinAddr: 0x100042980, symSize: 0x37C }
  - { offset: 0x1C41E, size: 0x8, addend: 0x0, symName: __ZNSt3__117__compressed_pairIPjNS_9allocatorIjEEEC1B8ne180100IDnNS_18__default_init_tagEEEOT_OT0_, symObjAddr: 0x3FEE8, symBinAddr: 0x100042CFC, symSize: 0x88 }
  - { offset: 0x1C476, size: 0x8, addend: 0x0, symName: __ZNSt3__117__compressed_pairIPjNS_9allocatorIjEEEC2B8ne180100IDnNS_18__default_init_tagEEEOT_OT0_, symObjAddr: 0x3FF70, symBinAddr: 0x100042D84, symSize: 0x140 }
  - { offset: 0x1C4CE, size: 0x8, addend: 0x0, symName: __ZNSt3__122__compressed_pair_elemIPjLi0ELb0EEC2B8ne180100IDnvEEOT_, symObjAddr: 0x400B0, symBinAddr: 0x100042EC4, symSize: 0xBC }
  - { offset: 0x1C510, size: 0x8, addend: 0x0, symName: __ZNSt3__122__compressed_pair_elemINS_9allocatorIjEELi1ELb1EEC2B8ne180100ENS_18__default_init_tagE, symObjAddr: 0x4016C, symBinAddr: 0x100042F80, symSize: 0x84 }
  - { offset: 0x1C545, size: 0x8, addend: 0x0, symName: __ZNSt3__19allocatorIjEC2B8ne180100Ev, symObjAddr: 0x401F0, symBinAddr: 0x100043004, symSize: 0x84 }
  - { offset: 0x1C56F, size: 0x8, addend: 0x0, symName: __ZNSt3__116__non_trivial_ifILb1ENS_9allocatorIjEEEC2B8ne180100Ev, symObjAddr: 0x40274, symBinAddr: 0x100043088, symSize: 0x54 }
  - { offset: 0x1C599, size: 0x8, addend: 0x0, symName: __ZNSt3__114priority_queueIjNS_6vectorIjNS_9allocatorIjEEEENS_7greaterIjEEEC2B8ne180100Ev, symObjAddr: 0x402C8, symBinAddr: 0x1000430DC, symSize: 0x78 }
  - { offset: 0x1C5C3, size: 0x8, addend: 0x0, symName: __ZNSt3__16vectorI19MedianPriorityQueueNS_9allocatorIS1_EEE21_ConstructTransactionD2B8ne180100Ev, symObjAddr: 0x40340, symBinAddr: 0x100043154, symSize: 0x390 }
  - { offset: 0x1C5ED, size: 0x8, addend: 0x0, symName: __ZNKSt3__16vectorI19MedianPriorityQueueNS_9allocatorIS1_EEE17__annotate_shrinkB8ne180100Em, symObjAddr: 0x406D0, symBinAddr: 0x1000434E4, symSize: 0x258 }
  - { offset: 0x1C622, size: 0x8, addend: 0x0, symName: __ZNKSt3__16vectorI19MedianPriorityQueueNS_9allocatorIS1_EEE8max_sizeEv, symObjAddr: 0x40928, symBinAddr: 0x10004373C, symSize: 0x3F4 }
  - { offset: 0x1C64B, size: 0x8, addend: 0x0, symName: __ZNKSt3__16vectorI19MedianPriorityQueueNS_9allocatorIS1_EEE20__throw_length_errorB8ne180100Ev, symObjAddr: 0x40D1C, symBinAddr: 0x100043B30, symSize: 0x80 }
  - { offset: 0x1C67B, size: 0x8, addend: 0x0, symName: __ZNSt3__116allocator_traitsINS_9allocatorI19MedianPriorityQueueEEE8max_sizeB8ne180100IS3_vEEmRKS3_, symObjAddr: 0x40D9C, symBinAddr: 0x100043BB0, symSize: 0x24 }
  - { offset: 0x1C6A9, size: 0x8, addend: 0x0, symName: __ZNKSt3__16vectorI19MedianPriorityQueueNS_9allocatorIS1_EEE7__allocB8ne180100Ev, symObjAddr: 0x40DC0, symBinAddr: 0x100043BD4, symSize: 0xE4 }
  - { offset: 0x1C6CF, size: 0x8, addend: 0x0, symName: __ZNKSt3__19allocatorI19MedianPriorityQueueE8max_sizeB8ne180100Ev, symObjAddr: 0x40EA4, symBinAddr: 0x100043CB8, symSize: 0x4C }
  - { offset: 0x1C6F5, size: 0x8, addend: 0x0, symName: __ZNKSt3__117__compressed_pairIP19MedianPriorityQueueNS_9allocatorIS1_EEE6secondB8ne180100Ev, symObjAddr: 0x40EF0, symBinAddr: 0x100043D04, symSize: 0x108 }
  - { offset: 0x1C71B, size: 0x8, addend: 0x0, symName: __ZNKSt3__122__compressed_pair_elemINS_9allocatorI19MedianPriorityQueueEELi1ELb1EE5__getB8ne180100Ev, symObjAddr: 0x40FF8, symBinAddr: 0x100043E0C, symSize: 0x74 }
  - { offset: 0x1C741, size: 0x8, addend: 0x0, symName: __ZNSt3__114__split_bufferI19MedianPriorityQueueRNS_9allocatorIS1_EEEC2EmmS4_, symObjAddr: 0x4106C, symBinAddr: 0x100043E80, symSize: 0x7C8 }
  - { offset: 0x1C7BC, size: 0x8, addend: 0x0, symName: __ZNSt3__117__compressed_pairIP19MedianPriorityQueueRNS_9allocatorIS1_EEEC1B8ne180100IDnS5_EEOT_OT0_, symObjAddr: 0x41834, symBinAddr: 0x100044648, symSize: 0x88 }
  - { offset: 0x1C814, size: 0x8, addend: 0x0, symName: __ZNSt3__114__split_bufferI19MedianPriorityQueueRNS_9allocatorIS1_EEE7__allocB8ne180100Ev, symObjAddr: 0x41B40, symBinAddr: 0x100044954, symSize: 0xE4 }
  - { offset: 0x1C83A, size: 0x8, addend: 0x0, symName: __ZNSt3__114__split_bufferI19MedianPriorityQueueRNS_9allocatorIS1_EEE9__end_capB8ne180100Ev, symObjAddr: 0x41C24, symBinAddr: 0x100044A38, symSize: 0x100 }
  - { offset: 0x1C860, size: 0x8, addend: 0x0, symName: __ZNSt3__117__compressed_pairIP19MedianPriorityQueueRNS_9allocatorIS1_EEEC2B8ne180100IDnS5_EEOT_OT0_, symObjAddr: 0x41D24, symBinAddr: 0x100044B38, symSize: 0x198 }
  - { offset: 0x1C8B8, size: 0x8, addend: 0x0, symName: __ZNSt3__122__compressed_pair_elemIRNS_9allocatorI19MedianPriorityQueueEELi1ELb0EEC2B8ne180100IS4_vEEOT_, symObjAddr: 0x41EBC, symBinAddr: 0x100044CD0, symSize: 0xEC }
  - { offset: 0x1C8FA, size: 0x8, addend: 0x0, symName: __ZNSt3__19allocatorI19MedianPriorityQueueE8allocateB8ne180100Em, symObjAddr: 0x41FA8, symBinAddr: 0x100044DBC, symSize: 0xCC }
  - { offset: 0x1C92E, size: 0x8, addend: 0x0, symName: __ZNSt3__117__compressed_pairIP19MedianPriorityQueueRNS_9allocatorIS1_EEE6secondB8ne180100Ev, symObjAddr: 0x42074, symBinAddr: 0x100044E88, symSize: 0x110 }
  - { offset: 0x1C954, size: 0x8, addend: 0x0, symName: __ZNSt3__122__compressed_pair_elemIRNS_9allocatorI19MedianPriorityQueueEELi1ELb0EE5__getB8ne180100Ev, symObjAddr: 0x42184, symBinAddr: 0x100044F98, symSize: 0xD8 }
  - { offset: 0x1C97A, size: 0x8, addend: 0x0, symName: __ZNSt3__117__compressed_pairIP19MedianPriorityQueueRNS_9allocatorIS1_EEE5firstB8ne180100Ev, symObjAddr: 0x4225C, symBinAddr: 0x100045070, symSize: 0x124 }
  - { offset: 0x1C9AA, size: 0x8, addend: 0x0, symName: __ZNSt3__114__split_bufferI19MedianPriorityQueueRNS_9allocatorIS1_EEE21_ConstructTransactionC1B8ne180100EPPS1_m, symObjAddr: 0x42380, symBinAddr: 0x100045194, symSize: 0x88 }
  - { offset: 0x1C9F0, size: 0x8, addend: 0x0, symName: __ZNSt3__114__split_bufferI19MedianPriorityQueueRNS_9allocatorIS1_EEE21_ConstructTransactionD1B8ne180100Ev, symObjAddr: 0x42408, symBinAddr: 0x10004521C, symSize: 0x78 }
  - { offset: 0x1CA1A, size: 0x8, addend: 0x0, symName: __ZNSt3__114__split_bufferI19MedianPriorityQueueRNS_9allocatorIS1_EEE21_ConstructTransactionC2B8ne180100EPPS1_m, symObjAddr: 0x42480, symBinAddr: 0x100045294, symSize: 0x324 }
  - { offset: 0x1CA60, size: 0x8, addend: 0x0, symName: __ZNSt3__114__split_bufferI19MedianPriorityQueueRNS_9allocatorIS1_EEE21_ConstructTransactionD2B8ne180100Ev, symObjAddr: 0x427A4, symBinAddr: 0x1000455B8, symSize: 0x174 }
  - { offset: 0x1CA8A, size: 0x8, addend: 0x0, symName: __ZNSt3__116reverse_iteratorIP19MedianPriorityQueueEC1B8ne180100ES2_, symObjAddr: 0x42F38, symBinAddr: 0x100045D4C, symSize: 0x80 }
  - { offset: 0x1CAC2, size: 0x8, addend: 0x0, symName: __ZNKSt3__116reverse_iteratorIP19MedianPriorityQueueE4baseB8ne180100Ev, symObjAddr: 0x42FB8, symBinAddr: 0x100045DCC, symSize: 0xB0 }
  - { offset: 0x1CAE8, size: 0x8, addend: 0x0, symName: __ZNKSt3__16vectorI19MedianPriorityQueueNS_9allocatorIS1_EEE14__annotate_newB8ne180100Em, symObjAddr: 0x43228, symBinAddr: 0x10004603C, symSize: 0x258 }
  - { offset: 0x1CB1D, size: 0x8, addend: 0x0, symName: __ZNSt3__129_AllocatorDestroyRangeReverseINS_9allocatorI19MedianPriorityQueueEENS_16reverse_iteratorIPS2_EEEC1B8ne180100ERS3_RS6_S9_, symObjAddr: 0x436AC, symBinAddr: 0x1000464C0, symSize: 0x90 }
  - { offset: 0x1CB7A, size: 0x8, addend: 0x0, symName: __ZNSt3__116allocator_traitsINS_9allocatorI19MedianPriorityQueueEEE9constructB8ne180100IS2_JS2_EvEEvRS3_PT_DpOT0_, symObjAddr: 0x437D8, symBinAddr: 0x1000465EC, symSize: 0x8C }
  - { offset: 0x1CBD1, size: 0x8, addend: 0x0, symName: __ZNKSt3__116reverse_iteratorIP19MedianPriorityQueueEdeB8ne180100Ev, symObjAddr: 0x438D0, symBinAddr: 0x1000466E4, symSize: 0x184 }
  - { offset: 0x1CC05, size: 0x8, addend: 0x0, symName: __ZNSt3__116reverse_iteratorIP19MedianPriorityQueueEppB8ne180100Ev, symObjAddr: 0x43A54, symBinAddr: 0x100046868, symSize: 0x1B0 }
  - { offset: 0x1CC2B, size: 0x8, addend: 0x0, symName: __ZNSt3__128__exception_guard_exceptionsINS_29_AllocatorDestroyRangeReverseINS_9allocatorI19MedianPriorityQueueEENS_16reverse_iteratorIPS3_EEEEE10__completeB8ne180100Ev, symObjAddr: 0x43C04, symBinAddr: 0x100046A18, symSize: 0xD8 }
  - { offset: 0x1CC51, size: 0x8, addend: 0x0, symName: __ZNSt3__128__exception_guard_exceptionsINS_29_AllocatorDestroyRangeReverseINS_9allocatorI19MedianPriorityQueueEENS_16reverse_iteratorIPS3_EEEEED1B8ne180100Ev, symObjAddr: 0x43CDC, symBinAddr: 0x100046AF0, symSize: 0x78 }
  - { offset: 0x1CC7B, size: 0x8, addend: 0x0, symName: __ZNSt3__128__exception_guard_exceptionsINS_29_AllocatorDestroyRangeReverseINS_9allocatorI19MedianPriorityQueueEENS_16reverse_iteratorIPS3_EEEEEC1B8ne180100ES8_, symObjAddr: 0x43D54, symBinAddr: 0x100046B68, symSize: 0x84 }
  - { offset: 0x1CCB4, size: 0x8, addend: 0x0, symName: __ZNSt3__128__exception_guard_exceptionsINS_29_AllocatorDestroyRangeReverseINS_9allocatorI19MedianPriorityQueueEENS_16reverse_iteratorIPS3_EEEEEC2B8ne180100ES8_, symObjAddr: 0x43DD8, symBinAddr: 0x100046BEC, symSize: 0xF8 }
  - { offset: 0x1CCED, size: 0x8, addend: 0x0, symName: __ZNSt3__129_AllocatorDestroyRangeReverseINS_9allocatorI19MedianPriorityQueueEENS_16reverse_iteratorIPS2_EEEC2B8ne180100ERS3_RS6_S9_, symObjAddr: 0x43ED0, symBinAddr: 0x100046CE4, symSize: 0x20C }
  - { offset: 0x1CD44, size: 0x8, addend: 0x0, symName: __ZNSt3__19allocatorI19MedianPriorityQueueE9constructB8ne180100IS1_JS1_EEEvPT_DpOT0_, symObjAddr: 0x440DC, symBinAddr: 0x100046EF0, symSize: 0xEC }
  - { offset: 0x1CD9A, size: 0x8, addend: 0x0, symName: __ZN19MedianPriorityQueueC1EOS_, symObjAddr: 0x441C8, symBinAddr: 0x100046FDC, symSize: 0x80 }
  - { offset: 0x1CDCF, size: 0x8, addend: 0x0, symName: __ZN19MedianPriorityQueueC2EOS_, symObjAddr: 0x44248, symBinAddr: 0x10004705C, symSize: 0x1B8 }
  - { offset: 0x1CE04, size: 0x8, addend: 0x0, symName: __ZNSt3__114priority_queueIjNS_6vectorIjNS_9allocatorIjEEEENS_4lessIjEEEC1B8ne180100EOS7_, symObjAddr: 0x44400, symBinAddr: 0x100047214, symSize: 0x80 }
  - { offset: 0x1CE3D, size: 0x8, addend: 0x0, symName: __ZNSt3__114priority_queueIjNS_6vectorIjNS_9allocatorIjEEEENS_7greaterIjEEEC1B8ne180100EOS7_, symObjAddr: 0x44480, symBinAddr: 0x100047294, symSize: 0x80 }
  - { offset: 0x1CE76, size: 0x8, addend: 0x0, symName: __ZNSt3__114priority_queueIjNS_6vectorIjNS_9allocatorIjEEEENS_4lessIjEEEC2B8ne180100EOS7_, symObjAddr: 0x44500, symBinAddr: 0x100047314, symSize: 0xC8 }
  - { offset: 0x1CEAF, size: 0x8, addend: 0x0, symName: __ZNSt3__16vectorIjNS_9allocatorIjEEEC1B8ne180100EOS3_, symObjAddr: 0x445C8, symBinAddr: 0x1000473DC, symSize: 0x80 }
  - { offset: 0x1CEEA, size: 0x8, addend: 0x0, symName: __ZNSt3__16vectorIjNS_9allocatorIjEEEC2B8ne180100EOS3_, symObjAddr: 0x44648, symBinAddr: 0x10004745C, symSize: 0x7E4 }
  - { offset: 0x1CF2D, size: 0x8, addend: 0x0, symName: __ZNSt3__117__compressed_pairIPjNS_9allocatorIjEEEC1B8ne180100IDnS3_EEOT_OT0_, symObjAddr: 0x44E2C, symBinAddr: 0x100047C40, symSize: 0x88 }
  - { offset: 0x1CF85, size: 0x8, addend: 0x0, symName: __ZNSt3__16vectorIjNS_9allocatorIjEEE9__end_capB8ne180100Ev, symObjAddr: 0x44EB4, symBinAddr: 0x100047CC8, symSize: 0x100 }
  - { offset: 0x1CFAB, size: 0x8, addend: 0x0, symName: __ZNSt3__117__compressed_pairIPjNS_9allocatorIjEEEC2B8ne180100IDnS3_EEOT_OT0_, symObjAddr: 0x44FB4, symBinAddr: 0x100047DC8, symSize: 0x170 }
  - { offset: 0x1D003, size: 0x8, addend: 0x0, symName: __ZNSt3__122__compressed_pair_elemINS_9allocatorIjEELi1ELb1EEC2B8ne180100IS2_vEEOT_, symObjAddr: 0x45124, symBinAddr: 0x100047F38, symSize: 0x58 }
  - { offset: 0x1D045, size: 0x8, addend: 0x0, symName: __ZNSt3__117__compressed_pairIPjNS_9allocatorIjEEE5firstB8ne180100Ev, symObjAddr: 0x4517C, symBinAddr: 0x100047F90, symSize: 0x124 }
  - { offset: 0x1D06B, size: 0x8, addend: 0x0, symName: __ZNSt3__122__compressed_pair_elemIPjLi0ELb0EE5__getB8ne180100Ev, symObjAddr: 0x452A0, symBinAddr: 0x1000480B4, symSize: 0xAC }
  - { offset: 0x1D091, size: 0x8, addend: 0x0, symName: __ZNSt3__114priority_queueIjNS_6vectorIjNS_9allocatorIjEEEENS_7greaterIjEEEC2B8ne180100EOS7_, symObjAddr: 0x4534C, symBinAddr: 0x100048160, symSize: 0xC8 }
  - { offset: 0x1D0CF, size: 0x8, addend: 0x0, symName: __ZNSt3__119__to_address_helperINS_16reverse_iteratorIP19MedianPriorityQueueEEvE6__callB8ne180100ERKS4_, symObjAddr: 0x45414, symBinAddr: 0x100048228, symSize: 0x70 }
  - { offset: 0x1D0F2, size: 0x8, addend: 0x0, symName: __ZNKSt3__116reverse_iteratorIP19MedianPriorityQueueEptB8ne180100Ev, symObjAddr: 0x45484, symBinAddr: 0x100048298, symSize: 0x6C }
  - { offset: 0x1D118, size: 0x8, addend: 0x0, symName: __ZNSt3__128__exception_guard_exceptionsINS_29_AllocatorDestroyRangeReverseINS_9allocatorI19MedianPriorityQueueEENS_16reverse_iteratorIPS3_EEEEED2B8ne180100Ev, symObjAddr: 0x454F0, symBinAddr: 0x100048304, symSize: 0x17C }
  - { offset: 0x1D142, size: 0x8, addend: 0x0, symName: __ZNKSt3__129_AllocatorDestroyRangeReverseINS_9allocatorI19MedianPriorityQueueEENS_16reverse_iteratorIPS2_EEEclB8ne180100Ev, symObjAddr: 0x4566C, symBinAddr: 0x100048480, symSize: 0x410 }
  - { offset: 0x1D169, size: 0x8, addend: 0x0, symName: __ZNSt3__116reverse_iteratorINS0_IP19MedianPriorityQueueEEEC1B8ne180100ES3_, symObjAddr: 0x45C20, symBinAddr: 0x100048A34, symSize: 0x294 }
  - { offset: 0x1D1A6, size: 0x8, addend: 0x0, symName: __ZNSt3__116reverse_iteratorINS0_IP19MedianPriorityQueueEEEppB8ne180100Ev, symObjAddr: 0x46234, symBinAddr: 0x100049048, symSize: 0x100 }
  - { offset: 0x1D1CC, size: 0x8, addend: 0x0, symName: __ZNKSt3__116reverse_iteratorINS0_IP19MedianPriorityQueueEEE4baseB8ne180100Ev, symObjAddr: 0x46334, symBinAddr: 0x100049148, symSize: 0x250 }
  - { offset: 0x1D1F8, size: 0x8, addend: 0x0, symName: __ZNSt3__119__to_address_helperINS_16reverse_iteratorINS1_IP19MedianPriorityQueueEEEEvE6__callB8ne180100ERKS5_, symObjAddr: 0x46584, symBinAddr: 0x100049398, symSize: 0x70 }
  - { offset: 0x1D21B, size: 0x8, addend: 0x0, symName: __ZNKSt3__116reverse_iteratorINS0_IP19MedianPriorityQueueEEEptB8ne180100Ev, symObjAddr: 0x465F4, symBinAddr: 0x100049408, symSize: 0x6C }
  - { offset: 0x1D241, size: 0x8, addend: 0x0, symName: __ZNKSt3__116reverse_iteratorINS0_IP19MedianPriorityQueueEEEdeB8ne180100Ev, symObjAddr: 0x46660, symBinAddr: 0x100049474, symSize: 0x2BC }
  - { offset: 0x1D27A, size: 0x8, addend: 0x0, symName: __ZNSt3__116reverse_iteratorIP19MedianPriorityQueueEmmB8ne180100Ev, symObjAddr: 0x4691C, symBinAddr: 0x100049730, symSize: 0x1B0 }
  - { offset: 0x1D2A0, size: 0x8, addend: 0x0, symName: __ZNSt3__116reverse_iteratorINS0_IP19MedianPriorityQueueEEEC2B8ne180100ES3_, symObjAddr: 0x46ACC, symBinAddr: 0x1000498E0, symSize: 0x27C }
  - { offset: 0x1D2DD, size: 0x8, addend: 0x0, symName: __ZNSt3__116reverse_iteratorIP19MedianPriorityQueueEC2B8ne180100ES2_, symObjAddr: 0x46D48, symBinAddr: 0x100049B5C, symSize: 0x10C }
  - { offset: 0x1D315, size: 0x8, addend: 0x0, symName: __ZNSt3__114__split_bufferI19MedianPriorityQueueRNS_9allocatorIS1_EEED2Ev, symObjAddr: 0x46E54, symBinAddr: 0x100049C68, symSize: 0x16C }
  - { offset: 0x1D341, size: 0x8, addend: 0x0, symName: __ZNSt3__114__split_bufferI19MedianPriorityQueueRNS_9allocatorIS1_EEE5clearB8ne180100Ev, symObjAddr: 0x46FC0, symBinAddr: 0x100049DD4, symSize: 0xB4 }
  - { offset: 0x1D367, size: 0x8, addend: 0x0, symName: __ZNKSt3__114__split_bufferI19MedianPriorityQueueRNS_9allocatorIS1_EEE8capacityB8ne180100Ev, symObjAddr: 0x47074, symBinAddr: 0x100049E88, symSize: 0x144 }
  - { offset: 0x1D38D, size: 0x8, addend: 0x0, symName: __ZNSt3__114__split_bufferI19MedianPriorityQueueRNS_9allocatorIS1_EEE17__destruct_at_endB8ne180100EPS1_, symObjAddr: 0x471B8, symBinAddr: 0x100049FCC, symSize: 0x74 }
  - { offset: 0x1D3C1, size: 0x8, addend: 0x0, symName: __ZNSt3__114__split_bufferI19MedianPriorityQueueRNS_9allocatorIS1_EEE17__destruct_at_endB8ne180100EPS1_NS_17integral_constantIbLb0EEE, symObjAddr: 0x4722C, symBinAddr: 0x10004A040, symSize: 0x224 }
  - { offset: 0x1D402, size: 0x8, addend: 0x0, symName: __ZNKSt3__114__split_bufferI19MedianPriorityQueueRNS_9allocatorIS1_EEE9__end_capB8ne180100Ev, symObjAddr: 0x47450, symBinAddr: 0x10004A264, symSize: 0x100 }
  - { offset: 0x1D428, size: 0x8, addend: 0x0, symName: __ZNKSt3__117__compressed_pairIP19MedianPriorityQueueRNS_9allocatorIS1_EEE5firstB8ne180100Ev, symObjAddr: 0x47550, symBinAddr: 0x10004A364, symSize: 0x124 }
  - { offset: 0x1D44E, size: 0x8, addend: 0x0, symName: __ZNKSt3__19basic_iosIcNS_11char_traitsIcEEE4failB8ne180100Ev, symObjAddr: 0x47674, symBinAddr: 0x10004A488, symSize: 0x124 }
  - { offset: 0x1D474, size: 0x8, addend: 0x0, symName: __ZNKSt3__18ios_base4failB8ne180100Ev, symObjAddr: 0x47798, symBinAddr: 0x10004A5AC, symSize: 0x170 }
  - { offset: 0x1D49C, size: 0x8, addend: 0x0, symName: __ZNKSt3__18ios_base5widthB8ne180100Ev, symObjAddr: 0x47908, symBinAddr: 0x10004A71C, symSize: 0x138 }
  - { offset: 0x1D4E2, size: 0x8, addend: 0x0, symName: __ZNKSt3__113basic_istreamIcNS_11char_traitsIcEEE6sentrycvbB8ne180100Ev, symObjAddr: 0x493F4, symBinAddr: 0x10004C208, symSize: 0xE8 }
  - { offset: 0x1D508, size: 0x8, addend: 0x0, symName: __ZNKSt3__19basic_iosIcNS_11char_traitsIcEEE5rdbufB8ne180100Ev, symObjAddr: 0x49664, symBinAddr: 0x10004C478, symSize: 0x120 }
  - { offset: 0x1D530, size: 0x8, addend: 0x0, symName: __ZNSt3__115basic_streambufIcNS_11char_traitsIcEEE5sgetcB8ne180100Ev, symObjAddr: 0x49784, symBinAddr: 0x10004C598, symSize: 0x41C }
  - { offset: 0x1D556, size: 0x8, addend: 0x0, symName: __ZNSt3__111char_traitsIcE11eq_int_typeB8ne180100Eii, symObjAddr: 0x49BA0, symBinAddr: 0x10004C9B4, symSize: 0x28 }
  - { offset: 0x1D589, size: 0x8, addend: 0x0, symName: __ZNSt3__111char_traitsIcE3eofB8ne180100Ev, symObjAddr: 0x49BC8, symBinAddr: 0x10004C9DC, symSize: 0x8 }
  - { offset: 0x1D59D, size: 0x8, addend: 0x0, symName: __ZNSt3__111char_traitsIcE12to_char_typeB8ne180100Ei, symObjAddr: 0x49BD0, symBinAddr: 0x10004C9E4, symSize: 0x18 }
  - { offset: 0x1D5EE, size: 0x8, addend: 0x0, symName: __ZNKSt3__15ctypeIcE2isB8ne180100Ejc, symObjAddr: 0x49BE8, symBinAddr: 0x10004C9FC, symSize: 0x314 }
  - { offset: 0x1D632, size: 0x8, addend: 0x0, symName: __ZNSt3__115basic_streambufIcNS_11char_traitsIcEEE6sbumpcB8ne180100Ev, symObjAddr: 0x49EFC, symBinAddr: 0x10004CD10, symSize: 0x4DC }
  - { offset: 0x1D658, size: 0x8, addend: 0x0, symName: __ZNSt3__18ios_base5widthB8ne180100El, symObjAddr: 0x4A3D8, symBinAddr: 0x10004D1EC, symSize: 0x1F8 }
  - { offset: 0x1D69E, size: 0x8, addend: 0x0, symName: __ZNSt3__18ios_base18__setstate_nothrowB8ne180100Ej, symObjAddr: 0x4A5D0, symBinAddr: 0x10004D3E4, symSize: 0x320 }
  - { offset: 0x1D6D3, size: 0x8, addend: 0x0, symName: __ZNKSt3__19basic_iosIcNS_11char_traitsIcEEE10exceptionsB8ne180100Ev, symObjAddr: 0x4A8F0, symBinAddr: 0x10004D704, symSize: 0x120 }
  - { offset: 0x1D6F9, size: 0x8, addend: 0x0, symName: __ZNSt3__19basic_iosIcNS_11char_traitsIcEEE8setstateB8ne180100Ej, symObjAddr: 0x4AA10, symBinAddr: 0x10004D824, symSize: 0x128 }
  - { offset: 0x1D72E, size: 0x8, addend: 0x0, symName: __ZNKSt3__18ios_base5rdbufB8ne180100Ev, symObjAddr: 0x4AB38, symBinAddr: 0x10004D94C, symSize: 0x138 }
  - { offset: 0x1D754, size: 0x8, addend: 0x0, symName: __ZNSt3__111char_traitsIcE11to_int_typeB8ne180100Ec, symObjAddr: 0x4AC70, symBinAddr: 0x10004DA84, symSize: 0x14 }
  - { offset: 0x1D777, size: 0x8, addend: 0x0, symName: __Z7isasciii, symObjAddr: 0x4AC84, symBinAddr: 0x10004DA98, symSize: 0x24 }
  - { offset: 0x1D7A4, size: 0x8, addend: 0x0, symName: __ZNKSt3__18ios_base10exceptionsB8ne180100Ev, symObjAddr: 0x4ACA8, symBinAddr: 0x10004DABC, symSize: 0x160 }
  - { offset: 0x1D7CC, size: 0x8, addend: 0x0, symName: __ZNSt3__18ios_base8setstateB8ne180100Ej, symObjAddr: 0x4AE08, symBinAddr: 0x10004DC1C, symSize: 0x1E0 }
  - { offset: 0x1D803, size: 0x8, addend: 0x0, symName: __ZNSt3__111char_traitsIcE6lengthB8ne180100EPKc, symObjAddr: 0x4C130, symBinAddr: 0x10004EF44, symSize: 0x40 }
  - { offset: 0x1D844, size: 0x8, addend: 0x0, symName: __ZNKSt3__113basic_ostreamIcNS_11char_traitsIcEEE6sentrycvbB8ne180100Ev, symObjAddr: 0x4C170, symBinAddr: 0x10004EF84, symSize: 0x104 }
  - { offset: 0x1D86A, size: 0x8, addend: 0x0, symName: __ZNSt3__119ostreambuf_iteratorIcNS_11char_traitsIcEEEC1B8ne180100ERNS_13basic_ostreamIcS2_EE, symObjAddr: 0x4CE70, symBinAddr: 0x10004FC84, symSize: 0x80 }
  - { offset: 0x1D8A2, size: 0x8, addend: 0x0, symName: __ZNKSt3__18ios_base5flagsB8ne180100Ev, symObjAddr: 0x4CEF0, symBinAddr: 0x10004FD04, symSize: 0x160 }
  - { offset: 0x1D8CA, size: 0x8, addend: 0x0, symName: __ZNKSt3__19basic_iosIcNS_11char_traitsIcEEE4fillB8ne180100Ev, symObjAddr: 0x4D050, symBinAddr: 0x10004FE64, symSize: 0x3A0 }
  - { offset: 0x1D8F2, size: 0x8, addend: 0x0, symName: __ZNKSt3__119ostreambuf_iteratorIcNS_11char_traitsIcEEE6failedB8ne180100Ev, symObjAddr: 0x4D3F0, symBinAddr: 0x100050204, symSize: 0xB8 }
  - { offset: 0x1D918, size: 0x8, addend: 0x0, symName: __ZNSt3__115basic_streambufIcNS_11char_traitsIcEEE5sputnB8ne180100EPKcl, symObjAddr: 0x4D4A8, symBinAddr: 0x1000502BC, symSize: 0x198 }
  - { offset: 0x1D95A, size: 0x8, addend: 0x0, symName: __ZNSt3__112basic_stringIcNS_11char_traitsIcEENS_9allocatorIcEEEC1B8ne180100Emc, symObjAddr: 0x4D640, symBinAddr: 0x100050454, symSize: 0x88 }
  - { offset: 0x1D9A2, size: 0x8, addend: 0x0, symName: __ZNSt3__112basic_stringIcNS_11char_traitsIcEENS_9allocatorIcEEE4dataB8ne180100Ev, symObjAddr: 0x4D6C8, symBinAddr: 0x1000504DC, symSize: 0x70 }
  - { offset: 0x1D9C8, size: 0x8, addend: 0x0, symName: __ZNSt3__112basic_stringIcNS_11char_traitsIcEENS_9allocatorIcEEEC2B8ne180100Emc, symObjAddr: 0x4D738, symBinAddr: 0x10005054C, symSize: 0x264 }
  - { offset: 0x1DA13, size: 0x8, addend: 0x0, symName: __ZNSt3__117__compressed_pairINS_12basic_stringIcNS_11char_traitsIcEENS_9allocatorIcEEE5__repES5_EC1B8ne180100INS_18__default_init_tagESA_EEOT_OT0_, symObjAddr: 0x4D99C, symBinAddr: 0x1000507B0, symSize: 0x88 }
  - { offset: 0x1DA6B, size: 0x8, addend: 0x0, symName: __ZNSt3__117__compressed_pairINS_12basic_stringIcNS_11char_traitsIcEENS_9allocatorIcEEE5__repES5_EC2B8ne180100INS_18__default_init_tagESA_EEOT_OT0_, symObjAddr: 0x4DA24, symBinAddr: 0x100050838, symSize: 0xF4 }
  - { offset: 0x1DAC3, size: 0x8, addend: 0x0, symName: __ZNSt3__122__compressed_pair_elemINS_12basic_stringIcNS_11char_traitsIcEENS_9allocatorIcEEE5__repELi0ELb0EEC2B8ne180100ENS_18__default_init_tagE, symObjAddr: 0x4DB18, symBinAddr: 0x10005092C, symSize: 0x6C }
  - { offset: 0x1DAF8, size: 0x8, addend: 0x0, symName: __ZNSt3__122__compressed_pair_elemINS_9allocatorIcEELi1ELb1EEC2B8ne180100ENS_18__default_init_tagE, symObjAddr: 0x4DB84, symBinAddr: 0x100050998, symSize: 0x84 }
  - { offset: 0x1DB2D, size: 0x8, addend: 0x0, symName: __ZNSt3__19allocatorIcEC2B8ne180100Ev, symObjAddr: 0x4DC08, symBinAddr: 0x100050A1C, symSize: 0x84 }
  - { offset: 0x1DB57, size: 0x8, addend: 0x0, symName: __ZNSt3__116__non_trivial_ifILb1ENS_9allocatorIcEEEC2B8ne180100Ev, symObjAddr: 0x4DC8C, symBinAddr: 0x100050AA0, symSize: 0x54 }
  - { offset: 0x1DB81, size: 0x8, addend: 0x0, symName: __ZNSt3__112basic_stringIcNS_11char_traitsIcEENS_9allocatorIcEEE13__get_pointerB8ne180100Ev, symObjAddr: 0x4DCF4, symBinAddr: 0x100050B08, symSize: 0x98 }
  - { offset: 0x1DBA7, size: 0x8, addend: 0x0, symName: __ZNKSt3__112basic_stringIcNS_11char_traitsIcEENS_9allocatorIcEEE9__is_longB8ne180100Ev, symObjAddr: 0x4DD8C, symBinAddr: 0x100050BA0, symSize: 0x1FC }
  - { offset: 0x1DBCD, size: 0x8, addend: 0x0, symName: __ZNSt3__112basic_stringIcNS_11char_traitsIcEENS_9allocatorIcEEE18__get_long_pointerB8ne180100Ev, symObjAddr: 0x4DF88, symBinAddr: 0x100050D9C, symSize: 0x208 }
  - { offset: 0x1DBF3, size: 0x8, addend: 0x0, symName: __ZNSt3__112basic_stringIcNS_11char_traitsIcEENS_9allocatorIcEEE19__get_short_pointerB8ne180100Ev, symObjAddr: 0x4E190, symBinAddr: 0x100050FA4, symSize: 0x1CC }
  - { offset: 0x1DC19, size: 0x8, addend: 0x0, symName: __ZNKSt3__117__compressed_pairINS_12basic_stringIcNS_11char_traitsIcEENS_9allocatorIcEEE5__repES5_E5firstB8ne180100Ev, symObjAddr: 0x4E35C, symBinAddr: 0x100051170, symSize: 0x124 }
  - { offset: 0x1DC3F, size: 0x8, addend: 0x0, symName: __ZNKSt3__122__compressed_pair_elemINS_12basic_stringIcNS_11char_traitsIcEENS_9allocatorIcEEE5__repELi0ELb0EE5__getB8ne180100Ev, symObjAddr: 0x4E480, symBinAddr: 0x100051294, symSize: 0xAC }
  - { offset: 0x1DC65, size: 0x8, addend: 0x0, symName: __ZNSt3__117__compressed_pairINS_12basic_stringIcNS_11char_traitsIcEENS_9allocatorIcEEE5__repES5_E5firstB8ne180100Ev, symObjAddr: 0x4E52C, symBinAddr: 0x100051340, symSize: 0x124 }
  - { offset: 0x1DC8B, size: 0x8, addend: 0x0, symName: __ZNSt3__122__compressed_pair_elemINS_12basic_stringIcNS_11char_traitsIcEENS_9allocatorIcEEE5__repELi0ELb0EE5__getB8ne180100Ev, symObjAddr: 0x4E650, symBinAddr: 0x100051464, symSize: 0xAC }
  - { offset: 0x1DCB1, size: 0x8, addend: 0x0, symName: __ZNSt3__114pointer_traitsIPcE10pointer_toB8ne180100ERc, symObjAddr: 0x4E6FC, symBinAddr: 0x100051510, symSize: 0x14 }
  - { offset: 0x1DCD4, size: 0x8, addend: 0x0, symName: __ZNSt3__119ostreambuf_iteratorIcNS_11char_traitsIcEEEC2B8ne180100ERNS_13basic_ostreamIcS2_EE, symObjAddr: 0x4E710, symBinAddr: 0x100051524, symSize: 0x2E8 }
  - { offset: 0x1DD0C, size: 0x8, addend: 0x0, symName: __ZNKSt3__19basic_iosIcNS_11char_traitsIcEEE5widenB8ne180100Ec, symObjAddr: 0x4E9F8, symBinAddr: 0x10005180C, symSize: 0x494 }
  - { offset: 0x1DD45, size: 0x8, addend: 0x0, symName: __ZNKSt3__15ctypeIcE5widenB8ne180100Ec, symObjAddr: 0x4EE8C, symBinAddr: 0x100051CA0, symSize: 0x18C }
  - { offset: 0x1DD7A, size: 0x8, addend: 0x0, symName: __ZNSt3__16vectorI5OrderNS_9allocatorIS1_EEE12emplace_backIJRjS6_S6_RbS6_S6_jEEERS1_DpOT_, symObjAddr: 0x4F03C, symBinAddr: 0x100051E50, symSize: 0x730 }
  - { offset: 0x1DE46, size: 0x8, addend: 0x0, symName: __ZNSt3__16vectorI5OrderNS_9allocatorIS1_EEE5beginB8ne180100Ev, symObjAddr: 0x4FAD0, symBinAddr: 0x1000528E4, symSize: 0x2A8 }
  - { offset: 0x1DE6F, size: 0x8, addend: 0x0, symName: __ZNSt3__16vectorI5OrderNS_9allocatorIS1_EEE3endB8ne180100Ev, symObjAddr: 0x4FD78, symBinAddr: 0x100052B8C, symSize: 0x2AC }
  - { offset: 0x1DE98, size: 0x8, addend: 0x0, symName: __ZNSt3__16vectorI5OrderNS_9allocatorIS1_EEE9__end_capB8ne180100Ev, symObjAddr: 0x50024, symBinAddr: 0x100052E38, symSize: 0x100 }
  - { offset: 0x1DEBE, size: 0x8, addend: 0x0, symName: __ZNSt3__16vectorI5OrderNS_9allocatorIS1_EEE22__construct_one_at_endB8ne180100IJRjS6_S6_RbS6_S6_jEEEvDpOT_, symObjAddr: 0x50124, symBinAddr: 0x100052F38, symSize: 0x74C }
  - { offset: 0x1DF91, size: 0x8, addend: 0x0, symName: __ZNSt3__16vectorI5OrderNS_9allocatorIS1_EEE24__emplace_back_slow_pathIJRjS6_S6_RbS6_S6_jEEEPS1_DpOT_, symObjAddr: 0x50870, symBinAddr: 0x100053684, symSize: 0x7F4 }
  - { offset: 0x1E076, size: 0x8, addend: 0x0, symName: __ZNSt3__117__compressed_pairIP5OrderNS_9allocatorIS1_EEE5firstB8ne180100Ev, symObjAddr: 0x51064, symBinAddr: 0x100053E78, symSize: 0x124 }
  - { offset: 0x1E09C, size: 0x8, addend: 0x0, symName: __ZNSt3__122__compressed_pair_elemIP5OrderLi0ELb0EE5__getB8ne180100Ev, symObjAddr: 0x51188, symBinAddr: 0x100053F9C, symSize: 0xAC }
  - { offset: 0x1E0DB, size: 0x8, addend: 0x0, symName: __ZNSt3__16vectorI5OrderNS_9allocatorIS1_EEE21_ConstructTransactionC1B8ne180100ERS4_m, symObjAddr: 0x51234, symBinAddr: 0x100054048, symSize: 0x88 }
  - { offset: 0x1E123, size: 0x8, addend: 0x0, symName: __ZNSt3__116allocator_traitsINS_9allocatorI5OrderEEE9constructB8ne180100IS2_JRjS6_S6_RbS6_S6_jEvEEvRS3_PT_DpOT0_, symObjAddr: 0x512BC, symBinAddr: 0x1000540D0, symSize: 0x25C }
  - { offset: 0x1E1F3, size: 0x8, addend: 0x0, symName: __ZNSt3__16vectorI5OrderNS_9allocatorIS1_EEE21_ConstructTransactionD1B8ne180100Ev, symObjAddr: 0x51518, symBinAddr: 0x10005432C, symSize: 0x78 }
  - { offset: 0x1E21D, size: 0x8, addend: 0x0, symName: __ZNSt3__16vectorI5OrderNS_9allocatorIS1_EEE21_ConstructTransactionC2B8ne180100ERS4_m, symObjAddr: 0x51590, symBinAddr: 0x1000543A4, symSize: 0x3E0 }
  - { offset: 0x1E265, size: 0x8, addend: 0x0, symName: __ZNKSt3__16vectorI5OrderNS_9allocatorIS1_EEE19__annotate_increaseB8ne180100Em, symObjAddr: 0x51970, symBinAddr: 0x100054784, symSize: 0x35C }
  - { offset: 0x1E29A, size: 0x8, addend: 0x0, symName: __ZNSt3__19allocatorI5OrderE9constructB8ne180100IS1_JRjS4_S4_RbS4_S4_jEEEvPT_DpOT0_, symObjAddr: 0x51CCC, symBinAddr: 0x100054AE0, symSize: 0x5A8 }
  - { offset: 0x1E365, size: 0x8, addend: 0x0, symName: __ZNSt3__16vectorI5OrderNS_9allocatorIS1_EEE21_ConstructTransactionD2B8ne180100Ev, symObjAddr: 0x52274, symBinAddr: 0x100055088, symSize: 0x390 }
  - { offset: 0x1E38F, size: 0x8, addend: 0x0, symName: __ZNKSt3__16vectorI5OrderNS_9allocatorIS1_EEE17__annotate_shrinkB8ne180100Em, symObjAddr: 0x52604, symBinAddr: 0x100055418, symSize: 0x268 }
  - { offset: 0x1E3C4, size: 0x8, addend: 0x0, symName: __ZNKSt3__16vectorI5OrderNS_9allocatorIS1_EEE11__recommendB8ne180100Em, symObjAddr: 0x5286C, symBinAddr: 0x100055680, symSize: 0x44C }
  - { offset: 0x1E420, size: 0x8, addend: 0x0, symName: __ZNSt3__114__split_bufferI5OrderRNS_9allocatorIS1_EEEC1EmmS4_, symObjAddr: 0x52CB8, symBinAddr: 0x100055ACC, symSize: 0x90 }
  - { offset: 0x1E476, size: 0x8, addend: 0x0, symName: __ZNSt3__114__split_bufferI5OrderRNS_9allocatorIS1_EEED1Ev, symObjAddr: 0x5359C, symBinAddr: 0x1000563B0, symSize: 0x78 }
  - { offset: 0x1E4A2, size: 0x8, addend: 0x0, symName: __ZNKSt3__16vectorI5OrderNS_9allocatorIS1_EEE8max_sizeEv, symObjAddr: 0x53614, symBinAddr: 0x100056428, symSize: 0x3F4 }
  - { offset: 0x1E4CB, size: 0x8, addend: 0x0, symName: __ZNKSt3__16vectorI5OrderNS_9allocatorIS1_EEE20__throw_length_errorB8ne180100Ev, symObjAddr: 0x53A08, symBinAddr: 0x10005681C, symSize: 0x80 }
  - { offset: 0x1E4FB, size: 0x8, addend: 0x0, symName: __ZNSt3__116allocator_traitsINS_9allocatorI5OrderEEE8max_sizeB8ne180100IS3_vEEmRKS3_, symObjAddr: 0x53A88, symBinAddr: 0x10005689C, symSize: 0x24 }
  - { offset: 0x1E529, size: 0x8, addend: 0x0, symName: __ZNKSt3__16vectorI5OrderNS_9allocatorIS1_EEE7__allocB8ne180100Ev, symObjAddr: 0x53AAC, symBinAddr: 0x1000568C0, symSize: 0xE4 }
  - { offset: 0x1E54F, size: 0x8, addend: 0x0, symName: __ZNKSt3__19allocatorI5OrderE8max_sizeB8ne180100Ev, symObjAddr: 0x53B90, symBinAddr: 0x1000569A4, symSize: 0x58 }
  - { offset: 0x1E575, size: 0x8, addend: 0x0, symName: __ZNKSt3__117__compressed_pairIP5OrderNS_9allocatorIS1_EEE6secondB8ne180100Ev, symObjAddr: 0x53BE8, symBinAddr: 0x1000569FC, symSize: 0x108 }
  - { offset: 0x1E59B, size: 0x8, addend: 0x0, symName: __ZNKSt3__122__compressed_pair_elemINS_9allocatorI5OrderEELi1ELb1EE5__getB8ne180100Ev, symObjAddr: 0x53CF0, symBinAddr: 0x100056B04, symSize: 0x74 }
  - { offset: 0x1E5C1, size: 0x8, addend: 0x0, symName: __ZNSt3__114__split_bufferI5OrderRNS_9allocatorIS1_EEEC2EmmS4_, symObjAddr: 0x53D64, symBinAddr: 0x100056B78, symSize: 0x7D8 }
  - { offset: 0x1E63C, size: 0x8, addend: 0x0, symName: __ZNSt3__117__compressed_pairIP5OrderRNS_9allocatorIS1_EEEC1B8ne180100IDnS5_EEOT_OT0_, symObjAddr: 0x5453C, symBinAddr: 0x100057350, symSize: 0x88 }
  - { offset: 0x1E694, size: 0x8, addend: 0x0, symName: __ZNSt3__114__split_bufferI5OrderRNS_9allocatorIS1_EEE7__allocB8ne180100Ev, symObjAddr: 0x54848, symBinAddr: 0x10005765C, symSize: 0xE4 }
  - { offset: 0x1E6BA, size: 0x8, addend: 0x0, symName: __ZNSt3__114__split_bufferI5OrderRNS_9allocatorIS1_EEE9__end_capB8ne180100Ev, symObjAddr: 0x5492C, symBinAddr: 0x100057740, symSize: 0x100 }
  - { offset: 0x1E6E0, size: 0x8, addend: 0x0, symName: __ZNSt3__117__compressed_pairIP5OrderRNS_9allocatorIS1_EEEC2B8ne180100IDnS5_EEOT_OT0_, symObjAddr: 0x54A2C, symBinAddr: 0x100057840, symSize: 0x198 }
  - { offset: 0x1E738, size: 0x8, addend: 0x0, symName: __ZNSt3__122__compressed_pair_elemIRNS_9allocatorI5OrderEELi1ELb0EEC2B8ne180100IS4_vEEOT_, symObjAddr: 0x54BC4, symBinAddr: 0x1000579D8, symSize: 0xEC }
  - { offset: 0x1E77A, size: 0x8, addend: 0x0, symName: __ZNSt3__19allocatorI5OrderE8allocateB8ne180100Em, symObjAddr: 0x54CB0, symBinAddr: 0x100057AC4, symSize: 0xD0 }
  - { offset: 0x1E7AE, size: 0x8, addend: 0x0, symName: __ZNSt3__117__compressed_pairIP5OrderRNS_9allocatorIS1_EEE6secondB8ne180100Ev, symObjAddr: 0x54D80, symBinAddr: 0x100057B94, symSize: 0x110 }
  - { offset: 0x1E7D4, size: 0x8, addend: 0x0, symName: __ZNSt3__122__compressed_pair_elemIRNS_9allocatorI5OrderEELi1ELb0EE5__getB8ne180100Ev, symObjAddr: 0x54E90, symBinAddr: 0x100057CA4, symSize: 0xD8 }
  - { offset: 0x1E7FA, size: 0x8, addend: 0x0, symName: __ZNSt3__117__compressed_pairIP5OrderRNS_9allocatorIS1_EEE5firstB8ne180100Ev, symObjAddr: 0x54F68, symBinAddr: 0x100057D7C, symSize: 0x124 }
  - { offset: 0x1E820, size: 0x8, addend: 0x0, symName: __ZNSt3__116reverse_iteratorIP5OrderEC1B8ne180100ES2_, symObjAddr: 0x5552C, symBinAddr: 0x100058340, symSize: 0x80 }
  - { offset: 0x1E858, size: 0x8, addend: 0x0, symName: __ZNKSt3__116reverse_iteratorIP5OrderE4baseB8ne180100Ev, symObjAddr: 0x555AC, symBinAddr: 0x1000583C0, symSize: 0xB0 }
  - { offset: 0x1E87E, size: 0x8, addend: 0x0, symName: __ZNKSt3__16vectorI5OrderNS_9allocatorIS1_EEE14__annotate_newB8ne180100Em, symObjAddr: 0x5581C, symBinAddr: 0x100058630, symSize: 0x268 }
  - { offset: 0x1E8CD, size: 0x8, addend: 0x0, symName: __ZNKSt3__111__move_loopINS_17_ClassicAlgPolicyEEclB8ne180100INS_16reverse_iteratorIP5OrderEES7_S7_EENS_4pairIT_T1_EES9_T0_SA_, symObjAddr: 0x5742C, symBinAddr: 0x10005A240, symSize: 0x360 }
  - { offset: 0x1E94B, size: 0x8, addend: 0x0, symName: __ZNSt3__18_IterOpsINS_17_ClassicAlgPolicyEE11__iter_moveB8ne180100IRNS_16reverse_iteratorIP5OrderEELi0EEEDTclsr3stdE4movedeclsr3stdE7declvalIRT_EEEEOS9_, symObjAddr: 0x58410, symBinAddr: 0x10005B224, symSize: 0xB8 }
  - { offset: 0x1E97D, size: 0x8, addend: 0x0, symName: __ZNKSt3__116reverse_iteratorIP5OrderEdeB8ne180100Ev, symObjAddr: 0x584C8, symBinAddr: 0x10005B2DC, symSize: 0x184 }
  - { offset: 0x1E9B1, size: 0x8, addend: 0x0, symName: __ZNSt3__116reverse_iteratorIP5OrderEppB8ne180100Ev, symObjAddr: 0x5864C, symBinAddr: 0x10005B460, symSize: 0x1B0 }
  - { offset: 0x1E9D7, size: 0x8, addend: 0x0, symName: __ZNSt3__18_IterOpsINS_17_ClassicAlgPolicyEE25__validate_iter_referenceB8ne180100IRNS_16reverse_iteratorIP5OrderEEEEvv, symObjAddr: 0x587FC, symBinAddr: 0x10005B610, symSize: 0x4 }
  - { offset: 0x1E9F5, size: 0x8, addend: 0x0, symName: __ZNSt3__118__unwrap_iter_implINS_16reverse_iteratorIP5OrderEELb0EE8__unwrapB8ne180100ES4_, symObjAddr: 0x58800, symBinAddr: 0x10005B614, symSize: 0x264 }
  - { offset: 0x1EA22, size: 0x8, addend: 0x0, symName: __ZNSt3__14pairINS_16reverse_iteratorIP5OrderEES4_EC1B8ne180100IS4_S4_Li0EEEOT_OT0_, symObjAddr: 0x58A64, symBinAddr: 0x10005B878, symSize: 0x88 }
  - { offset: 0x1EA80, size: 0x8, addend: 0x0, symName: __ZNSt3__14pairINS_16reverse_iteratorIP5OrderEES4_EC2B8ne180100IS4_S4_Li0EEEOT_OT0_, symObjAddr: 0x58AEC, symBinAddr: 0x10005B900, symSize: 0xA0 }
  - { offset: 0x1EADE, size: 0x8, addend: 0x0, symName: __ZNSt3__118__unwrap_iter_implINS_16reverse_iteratorIP5OrderEELb0EE8__rewrapB8ne180100ES4_S4_, symObjAddr: 0x58B8C, symBinAddr: 0x10005B9A0, symSize: 0x2D0 }
  - { offset: 0x1EB14, size: 0x8, addend: 0x0, symName: __ZNSt3__116reverse_iteratorIP5OrderEC2B8ne180100ES2_, symObjAddr: 0x58E5C, symBinAddr: 0x10005BC70, symSize: 0x10C }
  - { offset: 0x1EB4C, size: 0x8, addend: 0x0, symName: __ZNSt3__114__split_bufferI5OrderRNS_9allocatorIS1_EEED2Ev, symObjAddr: 0x58F68, symBinAddr: 0x10005BD7C, symSize: 0x16C }
  - { offset: 0x1EB78, size: 0x8, addend: 0x0, symName: __ZNSt3__114__split_bufferI5OrderRNS_9allocatorIS1_EEE5clearB8ne180100Ev, symObjAddr: 0x590D4, symBinAddr: 0x10005BEE8, symSize: 0xB4 }
  - { offset: 0x1EB9E, size: 0x8, addend: 0x0, symName: __ZNKSt3__114__split_bufferI5OrderRNS_9allocatorIS1_EEE8capacityB8ne180100Ev, symObjAddr: 0x59188, symBinAddr: 0x10005BF9C, symSize: 0x144 }
  - { offset: 0x1EBC4, size: 0x8, addend: 0x0, symName: __ZNSt3__114__split_bufferI5OrderRNS_9allocatorIS1_EEE17__destruct_at_endB8ne180100EPS1_, symObjAddr: 0x592CC, symBinAddr: 0x10005C0E0, symSize: 0x74 }
  - { offset: 0x1EBF8, size: 0x8, addend: 0x0, symName: __ZNSt3__114__split_bufferI5OrderRNS_9allocatorIS1_EEE17__destruct_at_endB8ne180100EPS1_NS_17integral_constantIbLb0EEE, symObjAddr: 0x59340, symBinAddr: 0x10005C154, symSize: 0x224 }
  - { offset: 0x1EC39, size: 0x8, addend: 0x0, symName: __ZNKSt3__114__split_bufferI5OrderRNS_9allocatorIS1_EEE9__end_capB8ne180100Ev, symObjAddr: 0x59564, symBinAddr: 0x10005C378, symSize: 0x100 }
  - { offset: 0x1EC5F, size: 0x8, addend: 0x0, symName: __ZNKSt3__117__compressed_pairIP5OrderRNS_9allocatorIS1_EEE5firstB8ne180100Ev, symObjAddr: 0x59664, symBinAddr: 0x10005C478, symSize: 0x124 }
  - { offset: 0x1EC85, size: 0x8, addend: 0x0, symName: __ZNKSt3__111__wrap_iterIP5OrderE4baseB8ne180100Ev, symObjAddr: 0x5A304, symBinAddr: 0x10005D118, symSize: 0xAC }
  - { offset: 0x1ECAB, size: 0x8, addend: 0x0, symName: __ZNKSt3__111__wrap_iterIP5OrderEplB8ne180100El, symObjAddr: 0x5A3B0, symBinAddr: 0x10005D1C4, symSize: 0x250 }
  - { offset: 0x1ECF3, size: 0x8, addend: 0x0, symName: __ZN18BuyOrderComparatorclERK5OrderS2_, symObjAddr: 0x5A600, symBinAddr: 0x10005D414, symSize: 0x458 }
  - { offset: 0x1ED35, size: 0x8, addend: 0x0, symName: __ZNKSt3__111__wrap_iterIP5OrderEdeB8ne180100Ev, symObjAddr: 0x5AA58, symBinAddr: 0x10005D86C, symSize: 0xF4 }
  - { offset: 0x1ED5B, size: 0x8, addend: 0x0, symName: __ZNSt3__111__wrap_iterIP5OrderEmmB8ne180100Ev, symObjAddr: 0x5AB4C, symBinAddr: 0x10005D960, symSize: 0x1A8 }
  - { offset: 0x1ED81, size: 0x8, addend: 0x0, symName: __ZNSt3__18_IterOpsINS_17_ClassicAlgPolicyEE11__iter_moveB8ne180100IRNS_11__wrap_iterIP5OrderEELi0EEEDTclsr3stdE4movedeclsr3stdE7declvalIRT_EEEEOS9_, symObjAddr: 0x5ACF4, symBinAddr: 0x10005DB08, symSize: 0xB8 }
  - { offset: 0x1EDB3, size: 0x8, addend: 0x0, symName: __ZNSt3__111__wrap_iterIP5OrderEpLB8ne180100El, symObjAddr: 0x5ADAC, symBinAddr: 0x10005DBC0, symSize: 0x230 }
  - { offset: 0x1EDE7, size: 0x8, addend: 0x0, symName: __ZNSt3__18_IterOpsINS_17_ClassicAlgPolicyEE25__validate_iter_referenceB8ne180100IRNS_11__wrap_iterIP5OrderEEEEvv, symObjAddr: 0x5AFDC, symBinAddr: 0x10005DDF0, symSize: 0x4 }
  - { offset: 0x1EE05, size: 0x8, addend: 0x0, symName: __ZNSt3__16vectorI5OrderNS_9allocatorIS1_EEE11__make_iterB8ne180100EPS1_, symObjAddr: 0x5AFE0, symBinAddr: 0x10005DDF4, symSize: 0x23C }
  - { offset: 0x1EE3C, size: 0x8, addend: 0x0, symName: __ZNSt3__111__wrap_iterIP5OrderEC1B8ne180100ES2_, symObjAddr: 0x5B21C, symBinAddr: 0x10005E030, symSize: 0x80 }
  - { offset: 0x1EE74, size: 0x8, addend: 0x0, symName: __ZNSt3__111__wrap_iterIP5OrderEC2B8ne180100ES2_, symObjAddr: 0x5B29C, symBinAddr: 0x10005E0B0, symSize: 0xC8 }
  - { offset: 0x1EEAC, size: 0x8, addend: 0x0, symName: __ZN19SellOrderComparatorclERK5OrderS2_, symObjAddr: 0x5C1A8, symBinAddr: 0x10005EFBC, symSize: 0x458 }
  - { offset: 0x1EEEE, size: 0x8, addend: 0x0, symName: __ZNSt3__112basic_stringIcNS_11char_traitsIcEENS_9allocatorIcEEEC2B8ne180100ILi0EEEPKc, symObjAddr: 0x5C600, symBinAddr: 0x10005F414, symSize: 0x270 }
  - { offset: 0x1EF2F, size: 0x8, addend: 0x0, symName: __ZNSt3__112basic_stringIcNS_11char_traitsIcEENS_9allocatorIcEEE5clearB8ne180100Ev, symObjAddr: 0x5C870, symBinAddr: 0x10005F684, symSize: 0x3AC }
  - { offset: 0x1EF68, size: 0x8, addend: 0x0, symName: __ZNKSt3__112basic_stringIcNS_11char_traitsIcEENS_9allocatorIcEEE8max_sizeB8ne180100Ev, symObjAddr: 0x5CC1C, symBinAddr: 0x10005FA30, symSize: 0x1B8 }
  - { offset: 0x1EFBA, size: 0x8, addend: 0x0, symName: __ZNKSt3__112basic_stringIcNS_11char_traitsIcEENS_9allocatorIcEEE4sizeB8ne180100Ev, symObjAddr: 0x5CDD4, symBinAddr: 0x10005FBE8, symSize: 0x98 }
  - { offset: 0x1EFE0, size: 0x8, addend: 0x0, symName: __ZNSt3__111char_traitsIcE6assignB8ne180100ERcRKc, symObjAddr: 0x5CE6C, symBinAddr: 0x10005FC80, symSize: 0xF4 }
  - { offset: 0x1F011, size: 0x8, addend: 0x0, symName: __ZNSt3__112basic_stringIcNS_11char_traitsIcEENS_9allocatorIcEEE15__set_long_sizeB8ne180100Em, symObjAddr: 0x5CF60, symBinAddr: 0x10005FD74, symSize: 0x220 }
  - { offset: 0x1F046, size: 0x8, addend: 0x0, symName: __ZNSt3__112basic_stringIcNS_11char_traitsIcEENS_9allocatorIcEEE16__set_short_sizeB8ne180100Em, symObjAddr: 0x5D180, symBinAddr: 0x10005FF94, symSize: 0x394 }
  - { offset: 0x1F07B, size: 0x8, addend: 0x0, symName: __ZNKSt3__112basic_stringIcNS_11char_traitsIcEENS_9allocatorIcEEE17__annotate_shrinkB8ne180100Em, symObjAddr: 0x5D514, symBinAddr: 0x100060328, symSize: 0x64 }
  - { offset: 0x1F0B0, size: 0x8, addend: 0x0, symName: __ZNKSt3__112basic_stringIcNS_11char_traitsIcEENS_9allocatorIcEEE15__get_long_sizeB8ne180100Ev, symObjAddr: 0x5D578, symBinAddr: 0x10006038C, symSize: 0x210 }
  - { offset: 0x1F0D6, size: 0x8, addend: 0x0, symName: __ZNKSt3__112basic_stringIcNS_11char_traitsIcEENS_9allocatorIcEEE16__get_short_sizeB8ne180100Ev, symObjAddr: 0x5D788, symBinAddr: 0x10006059C, symSize: 0x1F8 }
  - { offset: 0x1F106, size: 0x8, addend: 0x0, symName: __ZNSt3__116allocator_traitsINS_9allocatorIcEEE8max_sizeB8ne180100IS2_vEEmRKS2_, symObjAddr: 0x5D980, symBinAddr: 0x100060794, symSize: 0x24 }
  - { offset: 0x1F134, size: 0x8, addend: 0x0, symName: __ZNKSt3__112basic_stringIcNS_11char_traitsIcEENS_9allocatorIcEEE7__allocB8ne180100Ev, symObjAddr: 0x5D9A4, symBinAddr: 0x1000607B8, symSize: 0xDC }
  - { offset: 0x1F15A, size: 0x8, addend: 0x0, symName: __ZNSt3__114numeric_limitsImE3maxB8ne180100Ev, symObjAddr: 0x5DA80, symBinAddr: 0x100060894, symSize: 0x14 }
  - { offset: 0x1F16E, size: 0x8, addend: 0x0, symName: __ZNKSt3__19allocatorIcE8max_sizeB8ne180100Ev, symObjAddr: 0x5DA94, symBinAddr: 0x1000608A8, symSize: 0x4C }
  - { offset: 0x1F194, size: 0x8, addend: 0x0, symName: __ZNKSt3__117__compressed_pairINS_12basic_stringIcNS_11char_traitsIcEENS_9allocatorIcEEE5__repES5_E6secondB8ne180100Ev, symObjAddr: 0x5DAE0, symBinAddr: 0x1000608F4, symSize: 0x108 }
  - { offset: 0x1F1BA, size: 0x8, addend: 0x0, symName: __ZNKSt3__122__compressed_pair_elemINS_9allocatorIcEELi1ELb1EE5__getB8ne180100Ev, symObjAddr: 0x5DBE8, symBinAddr: 0x1000609FC, symSize: 0x74 }
  - { offset: 0x1F1E0, size: 0x8, addend: 0x0, symName: __ZNSt3__123__libcpp_numeric_limitsImLb1EE3maxB8ne180100Ev, symObjAddr: 0x5DC5C, symBinAddr: 0x100060A70, symSize: 0x8 }
  - { offset: 0x1F1F4, size: 0x8, addend: 0x0, symName: __ZNSt3__16vectorI6TraderNS_9allocatorIS1_EEE11__make_iterB8ne180100EPS1_, symObjAddr: 0x5DC64, symBinAddr: 0x100060A78, symSize: 0x23C }
  - { offset: 0x1F22B, size: 0x8, addend: 0x0, symName: __ZNSt3__111__wrap_iterIP6TraderEC1B8ne180100ES2_, symObjAddr: 0x5DEA0, symBinAddr: 0x100060CB4, symSize: 0x80 }
  - { offset: 0x1F263, size: 0x8, addend: 0x0, symName: __ZNSt3__111__wrap_iterIP6TraderEC2B8ne180100ES2_, symObjAddr: 0x5DF20, symBinAddr: 0x100060D34, symSize: 0xC8 }
  - { offset: 0x1F29B, size: 0x8, addend: 0x0, symName: __ZNKSt3__16vectorI5OrderNS_9allocatorIS1_EEE5emptyB8ne180100Ev, symObjAddr: 0x5DFE8, symBinAddr: 0x100060DFC, symSize: 0xF8 }
  - { offset: 0x1F2C1, size: 0x8, addend: 0x0, symName: __ZNKSt3__16vectorI5OrderNS_9allocatorIS1_EEE5frontB8ne180100Ev, symObjAddr: 0x5E0E0, symBinAddr: 0x100060EF4, symSize: 0xF4 }
  - { offset: 0x1F2E7, size: 0x8, addend: 0x0, symName: __ZNSt3__16vectorI5OrderNS_9allocatorIS1_EEE8pop_backEv, symObjAddr: 0x5E554, symBinAddr: 0x100061368, symSize: 0x150 }
  - { offset: 0x1F30F, size: 0x8, addend: 0x0, symName: __ZNSt3__111__wrap_iterIP5OrderEppB8ne180100Ev, symObjAddr: 0x5F3A8, symBinAddr: 0x1000621BC, symSize: 0x1A8 }
  - { offset: 0x1F335, size: 0x8, addend: 0x0, symName: __ZNSt3__16vectorI5OrderNS_9allocatorIS1_EEE17__destruct_at_endB8ne180100EPS1_, symObjAddr: 0x5F550, symBinAddr: 0x100062364, symSize: 0x90 }
  - { offset: 0x1F379, size: 0x8, addend: 0x0, symName: __ZNSt3__16vectorI5OrderNS_9allocatorIS1_EEE9push_backB8ne180100ERKS1_, symObjAddr: 0x605C8, symBinAddr: 0x1000633DC, symSize: 0x2D8 }
  - { offset: 0x1F3BF, size: 0x8, addend: 0x0, symName: __ZNSt3__16vectorI5OrderNS_9allocatorIS1_EEE22__construct_one_at_endB8ne180100IJRKS1_EEEvDpOT_, symObjAddr: 0x608A0, symBinAddr: 0x1000636B4, symSize: 0x578 }
  - { offset: 0x1F414, size: 0x8, addend: 0x0, symName: __ZNSt3__16vectorI5OrderNS_9allocatorIS1_EEE21__push_back_slow_pathIRKS1_EEPS1_OT_, symObjAddr: 0x60E18, symBinAddr: 0x100063C2C, symSize: 0x620 }
  - { offset: 0x1F479, size: 0x8, addend: 0x0, symName: __ZNSt3__116allocator_traitsINS_9allocatorI5OrderEEE9constructB8ne180100IS2_JRKS2_EvEEvRS3_PT_DpOT0_, symObjAddr: 0x61438, symBinAddr: 0x10006424C, symSize: 0x8C }
  - { offset: 0x1F4D0, size: 0x8, addend: 0x0, symName: __ZNSt3__19allocatorI5OrderE9constructB8ne180100IS1_JRKS1_EEEvPT_DpOT0_, symObjAddr: 0x614C4, symBinAddr: 0x1000642D8, symSize: 0xA8 }
  - { offset: 0x1F526, size: 0x8, addend: 0x0, symName: __ZNKSt3__16vectorIjNS_9allocatorIjEEE5frontB8ne180100Ev, symObjAddr: 0x6156C, symBinAddr: 0x100064380, symSize: 0xF4 }
  - { offset: 0x1F54C, size: 0x8, addend: 0x0, symName: __ZNSt3__16vectorIjNS_9allocatorIjEEE9push_backB8ne180100ERKj, symObjAddr: 0x61660, symBinAddr: 0x100064474, symSize: 0x2D8 }
  - { offset: 0x1F592, size: 0x8, addend: 0x0, symName: __ZNSt3__16vectorIjNS_9allocatorIjEEE5beginB8ne180100Ev, symObjAddr: 0x61C9C, symBinAddr: 0x100064AB0, symSize: 0x2A8 }
  - { offset: 0x1F5BB, size: 0x8, addend: 0x0, symName: __ZNSt3__16vectorIjNS_9allocatorIjEEE3endB8ne180100Ev, symObjAddr: 0x61F44, symBinAddr: 0x100064D58, symSize: 0x2AC }
  - { offset: 0x1F5E4, size: 0x8, addend: 0x0, symName: __ZNSt3__16vectorIjNS_9allocatorIjEEE22__construct_one_at_endB8ne180100IJRKjEEEvDpOT_, symObjAddr: 0x621F0, symBinAddr: 0x100065004, symSize: 0x578 }
  - { offset: 0x1F639, size: 0x8, addend: 0x0, symName: __ZNSt3__16vectorIjNS_9allocatorIjEEE21__push_back_slow_pathIRKjEEPjOT_, symObjAddr: 0x62768, symBinAddr: 0x10006557C, symSize: 0x620 }
  - { offset: 0x1F6B7, size: 0x8, addend: 0x0, symName: __ZNSt3__16vectorIjNS_9allocatorIjEEE21_ConstructTransactionC1B8ne180100ERS3_m, symObjAddr: 0x62D88, symBinAddr: 0x100065B9C, symSize: 0x88 }
  - { offset: 0x1F6FF, size: 0x8, addend: 0x0, symName: __ZNSt3__116allocator_traitsINS_9allocatorIjEEE9constructB8ne180100IjJRKjEvEEvRS2_PT_DpOT0_, symObjAddr: 0x62E10, symBinAddr: 0x100065C24, symSize: 0x8C }
  - { offset: 0x1F756, size: 0x8, addend: 0x0, symName: __ZNSt3__16vectorIjNS_9allocatorIjEEE21_ConstructTransactionD1B8ne180100Ev, symObjAddr: 0x62E9C, symBinAddr: 0x100065CB0, symSize: 0x78 }
  - { offset: 0x1F780, size: 0x8, addend: 0x0, symName: __ZNSt3__16vectorIjNS_9allocatorIjEEE21_ConstructTransactionC2B8ne180100ERS3_m, symObjAddr: 0x62F14, symBinAddr: 0x100065D28, symSize: 0x3D8 }
  - { offset: 0x1F7C8, size: 0x8, addend: 0x0, symName: __ZNKSt3__16vectorIjNS_9allocatorIjEEE19__annotate_increaseB8ne180100Em, symObjAddr: 0x632EC, symBinAddr: 0x100066100, symSize: 0x344 }
  - { offset: 0x1F7FD, size: 0x8, addend: 0x0, symName: __ZNSt3__19allocatorIjE9constructB8ne180100IjJRKjEEEvPT_DpOT0_, symObjAddr: 0x63630, symBinAddr: 0x100066444, symSize: 0x1B8 }
  - { offset: 0x1F853, size: 0x8, addend: 0x0, symName: __ZNSt3__16vectorIjNS_9allocatorIjEEE21_ConstructTransactionD2B8ne180100Ev, symObjAddr: 0x637E8, symBinAddr: 0x1000665FC, symSize: 0x390 }
  - { offset: 0x1F87D, size: 0x8, addend: 0x0, symName: __ZNKSt3__16vectorIjNS_9allocatorIjEEE17__annotate_shrinkB8ne180100Em, symObjAddr: 0x63B78, symBinAddr: 0x10006698C, symSize: 0x258 }
  - { offset: 0x1F8B2, size: 0x8, addend: 0x0, symName: __ZNKSt3__16vectorIjNS_9allocatorIjEEE11__recommendB8ne180100Em, symObjAddr: 0x63DD0, symBinAddr: 0x100066BE4, symSize: 0x44C }
  - { offset: 0x1F90E, size: 0x8, addend: 0x0, symName: __ZNSt3__114__split_bufferIjRNS_9allocatorIjEEEC1EmmS3_, symObjAddr: 0x6421C, symBinAddr: 0x100067030, symSize: 0x90 }
  - { offset: 0x1F964, size: 0x8, addend: 0x0, symName: __ZNSt3__114__split_bufferIjRNS_9allocatorIjEEED1Ev, symObjAddr: 0x64B00, symBinAddr: 0x100067914, symSize: 0x78 }
  - { offset: 0x1F990, size: 0x8, addend: 0x0, symName: __ZNKSt3__16vectorIjNS_9allocatorIjEEE8max_sizeEv, symObjAddr: 0x64B78, symBinAddr: 0x10006798C, symSize: 0x3F4 }
  - { offset: 0x1F9B9, size: 0x8, addend: 0x0, symName: __ZNKSt3__16vectorIjNS_9allocatorIjEEE20__throw_length_errorB8ne180100Ev, symObjAddr: 0x64F6C, symBinAddr: 0x100067D80, symSize: 0x80 }
  - { offset: 0x1F9E9, size: 0x8, addend: 0x0, symName: __ZNSt3__116allocator_traitsINS_9allocatorIjEEE8max_sizeB8ne180100IS2_vEEmRKS2_, symObjAddr: 0x64FEC, symBinAddr: 0x100067E00, symSize: 0x24 }
  - { offset: 0x1FA17, size: 0x8, addend: 0x0, symName: __ZNKSt3__16vectorIjNS_9allocatorIjEEE7__allocB8ne180100Ev, symObjAddr: 0x65010, symBinAddr: 0x100067E24, symSize: 0xE4 }
  - { offset: 0x1FA3D, size: 0x8, addend: 0x0, symName: __ZNKSt3__19allocatorIjE8max_sizeB8ne180100Ev, symObjAddr: 0x650F4, symBinAddr: 0x100067F08, symSize: 0x4C }
  - { offset: 0x1FA63, size: 0x8, addend: 0x0, symName: __ZNKSt3__117__compressed_pairIPjNS_9allocatorIjEEE6secondB8ne180100Ev, symObjAddr: 0x65140, symBinAddr: 0x100067F54, symSize: 0x108 }
  - { offset: 0x1FA89, size: 0x8, addend: 0x0, symName: __ZNKSt3__122__compressed_pair_elemINS_9allocatorIjEELi1ELb1EE5__getB8ne180100Ev, symObjAddr: 0x65248, symBinAddr: 0x10006805C, symSize: 0x74 }
  - { offset: 0x1FAAF, size: 0x8, addend: 0x0, symName: __ZNSt3__114__split_bufferIjRNS_9allocatorIjEEEC2EmmS3_, symObjAddr: 0x652BC, symBinAddr: 0x1000680D0, symSize: 0x7C8 }
  - { offset: 0x1FB2A, size: 0x8, addend: 0x0, symName: __ZNSt3__117__compressed_pairIPjRNS_9allocatorIjEEEC1B8ne180100IDnS4_EEOT_OT0_, symObjAddr: 0x65A84, symBinAddr: 0x100068898, symSize: 0x88 }
  - { offset: 0x1FB82, size: 0x8, addend: 0x0, symName: __ZNSt3__114__split_bufferIjRNS_9allocatorIjEEE7__allocB8ne180100Ev, symObjAddr: 0x65D90, symBinAddr: 0x100068BA4, symSize: 0xE4 }
  - { offset: 0x1FBA8, size: 0x8, addend: 0x0, symName: __ZNSt3__114__split_bufferIjRNS_9allocatorIjEEE9__end_capB8ne180100Ev, symObjAddr: 0x65E74, symBinAddr: 0x100068C88, symSize: 0x100 }
  - { offset: 0x1FBCE, size: 0x8, addend: 0x0, symName: __ZNSt3__117__compressed_pairIPjRNS_9allocatorIjEEEC2B8ne180100IDnS4_EEOT_OT0_, symObjAddr: 0x65F74, symBinAddr: 0x100068D88, symSize: 0x198 }
  - { offset: 0x1FC26, size: 0x8, addend: 0x0, symName: __ZNSt3__122__compressed_pair_elemIRNS_9allocatorIjEELi1ELb0EEC2B8ne180100IS3_vEEOT_, symObjAddr: 0x6610C, symBinAddr: 0x100068F20, symSize: 0xEC }
  - { offset: 0x1FC68, size: 0x8, addend: 0x0, symName: __ZNSt3__19allocatorIjE8allocateB8ne180100Em, symObjAddr: 0x661F8, symBinAddr: 0x10006900C, symSize: 0xCC }
  - { offset: 0x1FC9C, size: 0x8, addend: 0x0, symName: __ZNSt3__117__compressed_pairIPjRNS_9allocatorIjEEE6secondB8ne180100Ev, symObjAddr: 0x662C4, symBinAddr: 0x1000690D8, symSize: 0x110 }
  - { offset: 0x1FCC2, size: 0x8, addend: 0x0, symName: __ZNSt3__122__compressed_pair_elemIRNS_9allocatorIjEELi1ELb0EE5__getB8ne180100Ev, symObjAddr: 0x663D4, symBinAddr: 0x1000691E8, symSize: 0xD8 }
  - { offset: 0x1FCE8, size: 0x8, addend: 0x0, symName: __ZNSt3__117__compressed_pairIPjRNS_9allocatorIjEEE5firstB8ne180100Ev, symObjAddr: 0x664AC, symBinAddr: 0x1000692C0, symSize: 0x124 }
  - { offset: 0x1FD0E, size: 0x8, addend: 0x0, symName: __ZNSt3__116reverse_iteratorIPjEC1B8ne180100ES1_, symObjAddr: 0x66A70, symBinAddr: 0x100069884, symSize: 0x80 }
  - { offset: 0x1FD46, size: 0x8, addend: 0x0, symName: __ZNKSt3__116reverse_iteratorIPjE4baseB8ne180100Ev, symObjAddr: 0x66AF0, symBinAddr: 0x100069904, symSize: 0xB0 }
  - { offset: 0x1FD6C, size: 0x8, addend: 0x0, symName: __ZNKSt3__16vectorIjNS_9allocatorIjEEE14__annotate_newB8ne180100Em, symObjAddr: 0x66D60, symBinAddr: 0x100069B74, symSize: 0x258 }
  - { offset: 0x1FDBB, size: 0x8, addend: 0x0, symName: __ZNKSt3__111__move_loopINS_17_ClassicAlgPolicyEEclB8ne180100INS_16reverse_iteratorIPjEES6_S6_EENS_4pairIT_T1_EES8_T0_S9_, symObjAddr: 0x68960, symBinAddr: 0x10006B774, symSize: 0x49C }
  - { offset: 0x1FE39, size: 0x8, addend: 0x0, symName: __ZNSt3__18_IterOpsINS_17_ClassicAlgPolicyEE11__iter_moveB8ne180100IRNS_16reverse_iteratorIPjEELi0EEEDTclsr3stdE4movedeclsr3stdE7declvalIRT_EEEEOS8_, symObjAddr: 0x69A80, symBinAddr: 0x10006C894, symSize: 0xB8 }
  - { offset: 0x1FE6B, size: 0x8, addend: 0x0, symName: __ZNKSt3__116reverse_iteratorIPjEdeB8ne180100Ev, symObjAddr: 0x69B38, symBinAddr: 0x10006C94C, symSize: 0x184 }
  - { offset: 0x1FE9F, size: 0x8, addend: 0x0, symName: __ZNSt3__116reverse_iteratorIPjEppB8ne180100Ev, symObjAddr: 0x69CBC, symBinAddr: 0x10006CAD0, symSize: 0x1B0 }
  - { offset: 0x1FEC5, size: 0x8, addend: 0x0, symName: __ZNSt3__18_IterOpsINS_17_ClassicAlgPolicyEE25__validate_iter_referenceB8ne180100IRNS_16reverse_iteratorIPjEEEEvv, symObjAddr: 0x69E6C, symBinAddr: 0x10006CC80, symSize: 0x4 }
  - { offset: 0x1FEE3, size: 0x8, addend: 0x0, symName: __ZNSt3__118__unwrap_iter_implINS_16reverse_iteratorIPjEELb0EE8__unwrapB8ne180100ES3_, symObjAddr: 0x69E70, symBinAddr: 0x10006CC84, symSize: 0x264 }
  - { offset: 0x1FF10, size: 0x8, addend: 0x0, symName: __ZNSt3__14pairINS_16reverse_iteratorIPjEES3_EC1B8ne180100IS3_S3_Li0EEEOT_OT0_, symObjAddr: 0x6A0D4, symBinAddr: 0x10006CEE8, symSize: 0x88 }
  - { offset: 0x1FF6E, size: 0x8, addend: 0x0, symName: __ZNSt3__14pairINS_16reverse_iteratorIPjEES3_EC2B8ne180100IS3_S3_Li0EEEOT_OT0_, symObjAddr: 0x6A15C, symBinAddr: 0x10006CF70, symSize: 0xA0 }
  - { offset: 0x1FFCC, size: 0x8, addend: 0x0, symName: __ZNSt3__118__unwrap_iter_implINS_16reverse_iteratorIPjEELb0EE8__rewrapB8ne180100ES3_S3_, symObjAddr: 0x6A1FC, symBinAddr: 0x10006D010, symSize: 0x2D0 }
  - { offset: 0x20002, size: 0x8, addend: 0x0, symName: __ZNSt3__116reverse_iteratorIPjEC2B8ne180100ES1_, symObjAddr: 0x6A4CC, symBinAddr: 0x10006D2E0, symSize: 0x10C }
  - { offset: 0x2003A, size: 0x8, addend: 0x0, symName: __ZNSt3__114__split_bufferIjRNS_9allocatorIjEEED2Ev, symObjAddr: 0x6A5D8, symBinAddr: 0x10006D3EC, symSize: 0x16C }
  - { offset: 0x20066, size: 0x8, addend: 0x0, symName: __ZNSt3__114__split_bufferIjRNS_9allocatorIjEEE5clearB8ne180100Ev, symObjAddr: 0x6A744, symBinAddr: 0x10006D558, symSize: 0xB4 }
  - { offset: 0x2008C, size: 0x8, addend: 0x0, symName: __ZNKSt3__114__split_bufferIjRNS_9allocatorIjEEE8capacityB8ne180100Ev, symObjAddr: 0x6A7F8, symBinAddr: 0x10006D60C, symSize: 0x144 }
  - { offset: 0x200B2, size: 0x8, addend: 0x0, symName: __ZNSt3__114__split_bufferIjRNS_9allocatorIjEEE17__destruct_at_endB8ne180100EPj, symObjAddr: 0x6A93C, symBinAddr: 0x10006D750, symSize: 0x74 }
  - { offset: 0x200E6, size: 0x8, addend: 0x0, symName: __ZNSt3__114__split_bufferIjRNS_9allocatorIjEEE17__destruct_at_endB8ne180100EPjNS_17integral_constantIbLb0EEE, symObjAddr: 0x6A9B0, symBinAddr: 0x10006D7C4, symSize: 0x224 }
  - { offset: 0x20127, size: 0x8, addend: 0x0, symName: __ZNKSt3__114__split_bufferIjRNS_9allocatorIjEEE9__end_capB8ne180100Ev, symObjAddr: 0x6ABD4, symBinAddr: 0x10006D9E8, symSize: 0x100 }
  - { offset: 0x2014D, size: 0x8, addend: 0x0, symName: __ZNKSt3__117__compressed_pairIPjRNS_9allocatorIjEEE5firstB8ne180100Ev, symObjAddr: 0x6ACD4, symBinAddr: 0x10006DAE8, symSize: 0x124 }
  - { offset: 0x20173, size: 0x8, addend: 0x0, symName: __ZNKSt3__111__wrap_iterIPjE4baseB8ne180100Ev, symObjAddr: 0x6BCA4, symBinAddr: 0x10006EAB8, symSize: 0xAC }
  - { offset: 0x20199, size: 0x8, addend: 0x0, symName: __ZNKSt3__111__wrap_iterIPjEplB8ne180100El, symObjAddr: 0x6BD50, symBinAddr: 0x10006EB64, symSize: 0x250 }
  - { offset: 0x201E1, size: 0x8, addend: 0x0, symName: __ZNKSt3__17greaterIjEclB8ne180100ERKjS3_, symObjAddr: 0x6BFA0, symBinAddr: 0x10006EDB4, symSize: 0x13C }
  - { offset: 0x20225, size: 0x8, addend: 0x0, symName: __ZNKSt3__111__wrap_iterIPjEdeB8ne180100Ev, symObjAddr: 0x6C0DC, symBinAddr: 0x10006EEF0, symSize: 0xF4 }
  - { offset: 0x2024B, size: 0x8, addend: 0x0, symName: __ZNSt3__111__wrap_iterIPjEmmB8ne180100Ev, symObjAddr: 0x6C1D0, symBinAddr: 0x10006EFE4, symSize: 0x1A8 }
  - { offset: 0x20271, size: 0x8, addend: 0x0, symName: __ZNSt3__18_IterOpsINS_17_ClassicAlgPolicyEE11__iter_moveB8ne180100IRNS_11__wrap_iterIPjEELi0EEEDTclsr3stdE4movedeclsr3stdE7declvalIRT_EEEEOS8_, symObjAddr: 0x6C378, symBinAddr: 0x10006F18C, symSize: 0xB8 }
  - { offset: 0x202A3, size: 0x8, addend: 0x0, symName: __ZNSt3__111__wrap_iterIPjEpLB8ne180100El, symObjAddr: 0x6C430, symBinAddr: 0x10006F244, symSize: 0x228 }
  - { offset: 0x202D7, size: 0x8, addend: 0x0, symName: __ZNSt3__18_IterOpsINS_17_ClassicAlgPolicyEE25__validate_iter_referenceB8ne180100IRNS_11__wrap_iterIPjEEEEvv, symObjAddr: 0x6C658, symBinAddr: 0x10006F46C, symSize: 0x4 }
  - { offset: 0x202F5, size: 0x8, addend: 0x0, symName: __ZNSt3__16vectorIjNS_9allocatorIjEEE11__make_iterB8ne180100EPj, symObjAddr: 0x6C65C, symBinAddr: 0x10006F470, symSize: 0x23C }
  - { offset: 0x2032C, size: 0x8, addend: 0x0, symName: __ZNSt3__111__wrap_iterIPjEC1B8ne180100ES1_, symObjAddr: 0x6C898, symBinAddr: 0x10006F6AC, symSize: 0x80 }
  - { offset: 0x20364, size: 0x8, addend: 0x0, symName: __ZNSt3__111__wrap_iterIPjEC2B8ne180100ES1_, symObjAddr: 0x6C918, symBinAddr: 0x10006F72C, symSize: 0xC8 }
  - { offset: 0x2039C, size: 0x8, addend: 0x0, symName: __ZNSt3__16vectorIjNS_9allocatorIjEEE8pop_backEv, symObjAddr: 0x6CD60, symBinAddr: 0x10006FB74, symSize: 0x150 }
  - { offset: 0x203C4, size: 0x8, addend: 0x0, symName: __ZNSt3__111__wrap_iterIPjEppB8ne180100Ev, symObjAddr: 0x6DFE8, symBinAddr: 0x100070DFC, symSize: 0x1A8 }
  - { offset: 0x203EA, size: 0x8, addend: 0x0, symName: __ZNKSt3__14lessIjEclB8ne180100ERKjS3_, symObjAddr: 0x6EC08, symBinAddr: 0x100071A1C, symSize: 0x13C }
  - { offset: 0x2042E, size: 0x8, addend: 0x0, symName: __ZNSt3__16vectorIjNS_9allocatorIjEEE17__destruct_at_endB8ne180100EPj, symObjAddr: 0x6ED44, symBinAddr: 0x100071B58, symSize: 0x90 }
  - { offset: 0x20472, size: 0x8, addend: 0x0, symName: __ZNKSt3__16vectorIjNS_9allocatorIjEEE5emptyB8ne180100Ev, symObjAddr: 0x708EC, symBinAddr: 0x100073700, symSize: 0xF8 }
  - { offset: 0x20498, size: 0x8, addend: 0x0, symName: __ZNSt3__111char_traitsIcE2eqEcc, symObjAddr: 0x71964, symBinAddr: 0x100074778, symSize: 0x28 }
  - { offset: 0x204C9, size: 0x8, addend: 0x0, symName: __ZNSt3__19basic_iosIcNS_11char_traitsIcEEEC2B8ne180100Ev, symObjAddr: 0x7198C, symBinAddr: 0x1000747A0, symSize: 0x110 }
  - { offset: 0x204F3, size: 0x8, addend: 0x0, symName: __ZNSt3__114basic_iostreamIcNS_11char_traitsIcEEEC2B8ne180100EPNS_15basic_streambufIcS2_EE, symObjAddr: 0x71A9C, symBinAddr: 0x1000748B0, symSize: 0x33C }
  - { offset: 0x20539, size: 0x8, addend: 0x0, symName: __ZNSt3__115basic_stringbufIcNS_11char_traitsIcEENS_9allocatorIcEEEC1B8ne180100Ej, symObjAddr: 0x71DD8, symBinAddr: 0x100074BEC, symSize: 0x80 }
  - { offset: 0x20572, size: 0x8, addend: 0x0, symName: __ZNSt3__18ios_baseC2B8ne180100Ev, symObjAddr: 0x71E58, symBinAddr: 0x100074C6C, symSize: 0xC4 }
  - { offset: 0x2059C, size: 0x8, addend: 0x0, symName: __ZNSt3__113basic_istreamIcNS_11char_traitsIcEEEC2B8ne180100EPNS_15basic_streambufIcS2_EE, symObjAddr: 0x71F1C, symBinAddr: 0x100074D30, symSize: 0x3B8 }
  - { offset: 0x205E1, size: 0x8, addend: 0x0, symName: __ZNSt3__113basic_ostreamIcNS_11char_traitsIcEEEC2B8ne180100Ev, symObjAddr: 0x722D4, symBinAddr: 0x1000750E8, symSize: 0x1CC }
  - { offset: 0x20618, size: 0x8, addend: 0x0, symName: __ZNSt3__19basic_iosIcNS_11char_traitsIcEEE4initB8ne180100EPNS_15basic_streambufIcS2_EE, symObjAddr: 0x724A0, symBinAddr: 0x1000752B4, symSize: 0x2C8 }
  - { offset: 0x2064F, size: 0x8, addend: 0x0, symName: __ZNSt3__115basic_stringbufIcNS_11char_traitsIcEENS_9allocatorIcEEEC2B8ne180100Ej, symObjAddr: 0x72768, symBinAddr: 0x10007557C, symSize: 0x1C4 }
  - { offset: 0x20688, size: 0x8, addend: 0x0, symName: __ZNSt3__112basic_stringIcNS_11char_traitsIcEENS_9allocatorIcEEEC1B8ne180100Ev, symObjAddr: 0x7292C, symBinAddr: 0x100075740, symSize: 0x78 }
  - { offset: 0x206B2, size: 0x8, addend: 0x0, symName: __ZNSt3__112basic_stringIcNS_11char_traitsIcEENS_9allocatorIcEEEC2B8ne180100Ev, symObjAddr: 0x729A4, symBinAddr: 0x1000757B8, symSize: 0x2AC }
  - { offset: 0x206E3, size: 0x8, addend: 0x0, symName: __ZNSt3__117__compressed_pairINS_12basic_stringIcNS_11char_traitsIcEENS_9allocatorIcEEE5__repES5_EC1B8ne180100INS_16__value_init_tagENS_18__default_init_tagEEEOT_OT0_, symObjAddr: 0x72C50, symBinAddr: 0x100075A64, symSize: 0x88 }
  - { offset: 0x2073B, size: 0x8, addend: 0x0, symName: __ZNKSt3__112basic_stringIcNS_11char_traitsIcEENS_9allocatorIcEEE14__annotate_newB8ne180100Em, symObjAddr: 0x72CD8, symBinAddr: 0x100075AEC, symSize: 0x64 }
  - { offset: 0x20770, size: 0x8, addend: 0x0, symName: __ZNSt3__117__compressed_pairINS_12basic_stringIcNS_11char_traitsIcEENS_9allocatorIcEEE5__repES5_EC2B8ne180100INS_16__value_init_tagENS_18__default_init_tagEEEOT_OT0_, symObjAddr: 0x72D3C, symBinAddr: 0x100075B50, symSize: 0xF4 }
  - { offset: 0x207C8, size: 0x8, addend: 0x0, symName: __ZNSt3__122__compressed_pair_elemINS_12basic_stringIcNS_11char_traitsIcEENS_9allocatorIcEEE5__repELi0ELb0EEC2B8ne180100ENS_16__value_init_tagE, symObjAddr: 0x72E30, symBinAddr: 0x100075C44, symSize: 0x80 }
...
